ARM GAS  /tmp/cc8SQ2NL.s 			page 1


   1              		.cpu cortex-m3
   2              		.eabi_attribute 20, 1
   3              		.eabi_attribute 21, 1
   4              		.eabi_attribute 23, 3
   5              		.eabi_attribute 24, 1
   6              		.eabi_attribute 25, 1
   7              		.eabi_attribute 26, 1
   8              		.eabi_attribute 30, 1
   9              		.eabi_attribute 34, 1
  10              		.eabi_attribute 18, 4
  11              		.file	"stm32f1xx_it.c"
  12              		.text
  13              		.section	.text.NMI_Handler,"ax",%progbits
  14              		.align	1
  15              		.global	NMI_Handler
  16              		.arch armv7-m
  17              		.syntax unified
  18              		.thumb
  19              		.thumb_func
  20              		.fpu softvfp
  22              	NMI_Handler:
  23              		@ args = 0, pretend = 0, frame = 0
  24              		@ frame_needed = 0, uses_anonymous_args = 0
  25              		@ link register save eliminated.
  26 0000 7047     		bx	lr
  28              		.section	.text.HardFault_Handler,"ax",%progbits
  29              		.align	1
  30              		.global	HardFault_Handler
  31              		.syntax unified
  32              		.thumb
  33              		.thumb_func
  34              		.fpu softvfp
  36              	HardFault_Handler:
  37              		@ Volatile: function does not return.
  38              		@ args = 0, pretend = 0, frame = 0
  39              		@ frame_needed = 0, uses_anonymous_args = 0
  40              		@ link register save eliminated.
  41              	.L3:
  42 0000 FEE7     		b	.L3
  44              		.section	.text.MemManage_Handler,"ax",%progbits
  45              		.align	1
  46              		.global	MemManage_Handler
  47              		.syntax unified
  48              		.thumb
  49              		.thumb_func
  50              		.fpu softvfp
  52              	MemManage_Handler:
  53              		@ Volatile: function does not return.
  54              		@ args = 0, pretend = 0, frame = 0
  55              		@ frame_needed = 0, uses_anonymous_args = 0
  56              		@ link register save eliminated.
  57              	.L5:
  58 0000 FEE7     		b	.L5
  60              		.section	.text.BusFault_Handler,"ax",%progbits
  61              		.align	1
  62              		.global	BusFault_Handler
  63              		.syntax unified
ARM GAS  /tmp/cc8SQ2NL.s 			page 2


  64              		.thumb
  65              		.thumb_func
  66              		.fpu softvfp
  68              	BusFault_Handler:
  69              		@ Volatile: function does not return.
  70              		@ args = 0, pretend = 0, frame = 0
  71              		@ frame_needed = 0, uses_anonymous_args = 0
  72              		@ link register save eliminated.
  73              	.L7:
  74 0000 FEE7     		b	.L7
  76              		.section	.text.UsageFault_Handler,"ax",%progbits
  77              		.align	1
  78              		.global	UsageFault_Handler
  79              		.syntax unified
  80              		.thumb
  81              		.thumb_func
  82              		.fpu softvfp
  84              	UsageFault_Handler:
  85              		@ Volatile: function does not return.
  86              		@ args = 0, pretend = 0, frame = 0
  87              		@ frame_needed = 0, uses_anonymous_args = 0
  88              		@ link register save eliminated.
  89              	.L9:
  90 0000 FEE7     		b	.L9
  92              		.section	.text.SVC_Handler,"ax",%progbits
  93              		.align	1
  94              		.global	SVC_Handler
  95              		.syntax unified
  96              		.thumb
  97              		.thumb_func
  98              		.fpu softvfp
 100              	SVC_Handler:
 101              		@ args = 0, pretend = 0, frame = 0
 102              		@ frame_needed = 0, uses_anonymous_args = 0
 103              		@ link register save eliminated.
 104 0000 7047     		bx	lr
 106              		.section	.text.DebugMon_Handler,"ax",%progbits
 107              		.align	1
 108              		.global	DebugMon_Handler
 109              		.syntax unified
 110              		.thumb
 111              		.thumb_func
 112              		.fpu softvfp
 114              	DebugMon_Handler:
 115              		@ args = 0, pretend = 0, frame = 0
 116              		@ frame_needed = 0, uses_anonymous_args = 0
 117              		@ link register save eliminated.
 118 0000 7047     		bx	lr
 120              		.section	.text.PendSV_Handler,"ax",%progbits
 121              		.align	1
 122              		.global	PendSV_Handler
 123              		.syntax unified
 124              		.thumb
 125              		.thumb_func
 126              		.fpu softvfp
 128              	PendSV_Handler:
 129              		@ args = 0, pretend = 0, frame = 0
ARM GAS  /tmp/cc8SQ2NL.s 			page 3


 130              		@ frame_needed = 0, uses_anonymous_args = 0
 131              		@ link register save eliminated.
 132 0000 7047     		bx	lr
 134              		.section	.text.SysTick_Handler,"ax",%progbits
 135              		.align	1
 136              		.global	SysTick_Handler
 137              		.syntax unified
 138              		.thumb
 139              		.thumb_func
 140              		.fpu softvfp
 142              	SysTick_Handler:
 143              		@ args = 0, pretend = 0, frame = 0
 144              		@ frame_needed = 0, uses_anonymous_args = 0
 145 0000 08B5     		push	{r3, lr}
 146 0002 FFF7FEFF 		bl	HAL_IncTick
 147 0006 08BD     		pop	{r3, pc}
 149              		.section	.text.USB_LP_CAN1_RX0_IRQHandler,"ax",%progbits
 150              		.align	1
 151              		.global	USB_LP_CAN1_RX0_IRQHandler
 152              		.syntax unified
 153              		.thumb
 154              		.thumb_func
 155              		.fpu softvfp
 157              	USB_LP_CAN1_RX0_IRQHandler:
 158              		@ args = 0, pretend = 0, frame = 0
 159              		@ frame_needed = 0, uses_anonymous_args = 0
 160 0000 08B5     		push	{r3, lr}
 161 0002 0248     		ldr	r0, .L17
 162 0004 FFF7FEFF 		bl	HAL_PCD_IRQHandler
 163 0008 08BD     		pop	{r3, pc}
 164              	.L18:
 165 000a 00BF     		.align	2
 166              	.L17:
 167 000c 00000000 		.word	hpcd_USB_FS
 169              		.section	.text.USART1_IRQHandler,"ax",%progbits
 170              		.align	1
 171              		.global	USART1_IRQHandler
 172              		.syntax unified
 173              		.thumb
 174              		.thumb_func
 175              		.fpu softvfp
 177              	USART1_IRQHandler:
 178              		@ args = 0, pretend = 0, frame = 0
 179              		@ frame_needed = 0, uses_anonymous_args = 0
 180 0000 08B5     		push	{r3, lr}
 181 0002 0248     		ldr	r0, .L21
 182 0004 FFF7FEFF 		bl	HAL_UART_IRQHandler
 183 0008 08BD     		pop	{r3, pc}
 184              	.L22:
 185 000a 00BF     		.align	2
 186              	.L21:
 187 000c 00000000 		.word	huart1
 189              		.ident	"GCC: (GNU Tools for Arm Embedded Processors 8-2018-q4-major) 8.2.1 20181213 (release) [gcc
ARM GAS  /tmp/cc8SQ2NL.s 			page 4

