ARM GAS  /tmp/ccVfREvW.s 			page 1


   1              		.cpu cortex-m3
   2              		.eabi_attribute 20, 1
   3              		.eabi_attribute 21, 1
   4              		.eabi_attribute 23, 3
   5              		.eabi_attribute 24, 1
   6              		.eabi_attribute 25, 1
   7              		.eabi_attribute 26, 1
   8              		.eabi_attribute 30, 1
   9              		.eabi_attribute 34, 1
  10              		.eabi_attribute 18, 4
  11              		.file	"stm32f1xx_hal_pcd.c"
  12              		.text
  13              		.section	.text.HAL_PCD_MspInit,"ax",%progbits
  14              		.align	1
  15              		.weak	HAL_PCD_MspInit
  16              		.arch armv7-m
  17              		.syntax unified
  18              		.thumb
  19              		.thumb_func
  20              		.fpu softvfp
  22              	HAL_PCD_MspInit:
  23              		@ args = 0, pretend = 0, frame = 0
  24              		@ frame_needed = 0, uses_anonymous_args = 0
  25              		@ link register save eliminated.
  26 0000 7047     		bx	lr
  28              		.section	.text.HAL_PCD_Init,"ax",%progbits
  29              		.align	1
  30              		.global	HAL_PCD_Init
  31              		.syntax unified
  32              		.thumb
  33              		.thumb_func
  34              		.fpu softvfp
  36              	HAL_PCD_Init:
  37              		@ args = 0, pretend = 0, frame = 0
  38              		@ frame_needed = 0, uses_anonymous_args = 0
  39 0000 0028     		cmp	r0, #0
  40 0002 66D0     		beq	.L9
  41 0004 F0B5     		push	{r4, r5, r6, r7, lr}
  42 0006 87B0     		sub	sp, sp, #28
  43 0008 0446     		mov	r4, r0
  44 000a 90F82934 		ldrb	r3, [r0, #1065]	@ zero_extendqisi2
  45 000e 5BB3     		cbz	r3, .L14
  46              	.L4:
  47 0010 0323     		movs	r3, #3
  48 0012 84F82934 		strb	r3, [r4, #1065]
  49 0016 2068     		ldr	r0, [r4]
  50 0018 FFF7FEFF 		bl	USB_DisableGlobalInt
  51 001c 2546     		mov	r5, r4
  52 001e 55F8107B 		ldr	r7, [r5], #16
  53 0022 6E46     		mov	r6, sp
  54 0024 0FCD     		ldmia	r5!, {r0, r1, r2, r3}
  55 0026 0FC6     		stmia	r6!, {r0, r1, r2, r3}
  56 0028 2B68     		ldr	r3, [r5]
  57 002a 3360     		str	r3, [r6]
  58 002c 231D     		adds	r3, r4, #4
  59 002e 0ECB     		ldm	r3, {r1, r2, r3}
  60 0030 3846     		mov	r0, r7
ARM GAS  /tmp/ccVfREvW.s 			page 2


  61 0032 FFF7FEFF 		bl	USB_CoreInit
  62 0036 0021     		movs	r1, #0
  63 0038 2068     		ldr	r0, [r4]
  64 003a FFF7FEFF 		bl	USB_SetCurrentMode
  65 003e 0023     		movs	r3, #0
  66              	.L5:
  67 0040 0E2B     		cmp	r3, #14
  68 0042 16D8     		bhi	.L15
  69 0044 04EB4312 		add	r2, r4, r3, lsl #5
  70 0048 0121     		movs	r1, #1
  71 004a 82F82910 		strb	r1, [r2, #41]
  72 004e 82F82830 		strb	r3, [r2, #40]
  73 0052 9386     		strh	r3, [r2, #52]	@ movhi
  74 0054 0021     		movs	r1, #0
  75 0056 82F82B10 		strb	r1, [r2, #43]
  76 005a 9163     		str	r1, [r2, #56]
  77 005c D163     		str	r1, [r2, #60]
  78 005e 9A1C     		adds	r2, r3, #2
  79 0060 5201     		lsls	r2, r2, #5
  80 0062 A150     		str	r1, [r4, r2]
  81 0064 0133     		adds	r3, r3, #1
  82 0066 EBE7     		b	.L5
  83              	.L14:
  84 0068 80F82834 		strb	r3, [r0, #1064]
  85 006c FFF7FEFF 		bl	HAL_PCD_MspInit
  86 0070 CEE7     		b	.L4
  87              	.L15:
  88 0072 0023     		movs	r3, #0
  89              	.L7:
  90 0074 0E2B     		cmp	r3, #14
  91 0076 13D8     		bhi	.L16
  92 0078 04EB4312 		add	r2, r4, r3, lsl #5
  93 007c 0021     		movs	r1, #0
  94 007e 82F82912 		strb	r1, [r2, #553]
  95 0082 82F82832 		strb	r3, [r2, #552]
  96 0086 9386     		strh	r3, [r2, #52]	@ movhi
  97 0088 82F82B12 		strb	r1, [r2, #555]
  98 008c C2F83812 		str	r1, [r2, #568]
  99 0090 C2F83C12 		str	r1, [r2, #572]
 100 0094 03F11202 		add	r2, r3, #18
 101 0098 5201     		lsls	r2, r2, #5
 102 009a A150     		str	r1, [r4, r2]
 103 009c 0133     		adds	r3, r3, #1
 104 009e E9E7     		b	.L7
 105              	.L16:
 106 00a0 2546     		mov	r5, r4
 107 00a2 55F8107B 		ldr	r7, [r5], #16
 108 00a6 6E46     		mov	r6, sp
 109 00a8 0FCD     		ldmia	r5!, {r0, r1, r2, r3}
 110 00aa 0FC6     		stmia	r6!, {r0, r1, r2, r3}
 111 00ac 2B68     		ldr	r3, [r5]
 112 00ae 3360     		str	r3, [r6]
 113 00b0 231D     		adds	r3, r4, #4
 114 00b2 0ECB     		ldm	r3, {r1, r2, r3}
 115 00b4 3846     		mov	r0, r7
 116 00b6 FFF7FEFF 		bl	USB_DevInit
 117 00ba 0025     		movs	r5, #0
ARM GAS  /tmp/ccVfREvW.s 			page 3


 118 00bc 84F82450 		strb	r5, [r4, #36]
 119 00c0 0123     		movs	r3, #1
 120 00c2 84F82934 		strb	r3, [r4, #1065]
 121 00c6 2068     		ldr	r0, [r4]
 122 00c8 FFF7FEFF 		bl	USB_DevDisconnect
 123 00cc 2846     		mov	r0, r5
 124 00ce 07B0     		add	sp, sp, #28
 125              		@ sp needed
 126 00d0 F0BD     		pop	{r4, r5, r6, r7, pc}
 127              	.L9:
 128 00d2 0120     		movs	r0, #1
 129 00d4 7047     		bx	lr
 131              		.section	.text.HAL_PCD_MspDeInit,"ax",%progbits
 132              		.align	1
 133              		.weak	HAL_PCD_MspDeInit
 134              		.syntax unified
 135              		.thumb
 136              		.thumb_func
 137              		.fpu softvfp
 139              	HAL_PCD_MspDeInit:
 140              		@ args = 0, pretend = 0, frame = 0
 141              		@ frame_needed = 0, uses_anonymous_args = 0
 142              		@ link register save eliminated.
 143 0000 7047     		bx	lr
 145              		.section	.text.HAL_PCD_Start,"ax",%progbits
 146              		.align	1
 147              		.global	HAL_PCD_Start
 148              		.syntax unified
 149              		.thumb
 150              		.thumb_func
 151              		.fpu softvfp
 153              	HAL_PCD_Start:
 154              		@ args = 0, pretend = 0, frame = 0
 155              		@ frame_needed = 0, uses_anonymous_args = 0
 156 0000 90F82834 		ldrb	r3, [r0, #1064]	@ zero_extendqisi2
 157 0004 012B     		cmp	r3, #1
 158 0006 10D0     		beq	.L20
 159 0008 10B5     		push	{r4, lr}
 160 000a 0446     		mov	r4, r0
 161 000c 0121     		movs	r1, #1
 162 000e 80F82814 		strb	r1, [r0, #1064]
 163 0012 FFF7FEFF 		bl	HAL_PCDEx_SetConnectionState
 164 0016 2068     		ldr	r0, [r4]
 165 0018 FFF7FEFF 		bl	USB_DevConnect
 166 001c 2068     		ldr	r0, [r4]
 167 001e FFF7FEFF 		bl	USB_EnableGlobalInt
 168 0022 0020     		movs	r0, #0
 169 0024 84F82804 		strb	r0, [r4, #1064]
 170 0028 10BD     		pop	{r4, pc}
 171              	.L20:
 172 002a 0220     		movs	r0, #2
 173 002c 7047     		bx	lr
 175              		.section	.text.HAL_PCD_Stop,"ax",%progbits
 176              		.align	1
 177              		.global	HAL_PCD_Stop
 178              		.syntax unified
 179              		.thumb
ARM GAS  /tmp/ccVfREvW.s 			page 4


 180              		.thumb_func
 181              		.fpu softvfp
 183              	HAL_PCD_Stop:
 184              		@ args = 0, pretend = 0, frame = 0
 185              		@ frame_needed = 0, uses_anonymous_args = 0
 186 0000 90F82834 		ldrb	r3, [r0, #1064]	@ zero_extendqisi2
 187 0004 012B     		cmp	r3, #1
 188 0006 11D0     		beq	.L27
 189 0008 10B5     		push	{r4, lr}
 190 000a 0446     		mov	r4, r0
 191 000c 0123     		movs	r3, #1
 192 000e 80F82834 		strb	r3, [r0, #1064]
 193 0012 0068     		ldr	r0, [r0]
 194 0014 FFF7FEFF 		bl	USB_DisableGlobalInt
 195 0018 2068     		ldr	r0, [r4]
 196 001a FFF7FEFF 		bl	USB_StopDevice
 197 001e 2068     		ldr	r0, [r4]
 198 0020 FFF7FEFF 		bl	USB_DevDisconnect
 199 0024 0020     		movs	r0, #0
 200 0026 84F82804 		strb	r0, [r4, #1064]
 201 002a 10BD     		pop	{r4, pc}
 202              	.L27:
 203 002c 0220     		movs	r0, #2
 204 002e 7047     		bx	lr
 206              		.section	.text.HAL_PCD_DeInit,"ax",%progbits
 207              		.align	1
 208              		.global	HAL_PCD_DeInit
 209              		.syntax unified
 210              		.thumb
 211              		.thumb_func
 212              		.fpu softvfp
 214              	HAL_PCD_DeInit:
 215              		@ args = 0, pretend = 0, frame = 0
 216              		@ frame_needed = 0, uses_anonymous_args = 0
 217 0000 68B1     		cbz	r0, .L34
 218 0002 10B5     		push	{r4, lr}
 219 0004 0446     		mov	r4, r0
 220 0006 0323     		movs	r3, #3
 221 0008 80F82934 		strb	r3, [r0, #1065]
 222 000c FFF7FEFF 		bl	HAL_PCD_Stop
 223 0010 2046     		mov	r0, r4
 224 0012 FFF7FEFF 		bl	HAL_PCD_MspDeInit
 225 0016 0020     		movs	r0, #0
 226 0018 84F82904 		strb	r0, [r4, #1065]
 227 001c 10BD     		pop	{r4, pc}
 228              	.L34:
 229 001e 0120     		movs	r0, #1
 230 0020 7047     		bx	lr
 232              		.section	.text.HAL_PCD_DataOutStageCallback,"ax",%progbits
 233              		.align	1
 234              		.weak	HAL_PCD_DataOutStageCallback
 235              		.syntax unified
 236              		.thumb
 237              		.thumb_func
 238              		.fpu softvfp
 240              	HAL_PCD_DataOutStageCallback:
 241              		@ args = 0, pretend = 0, frame = 0
ARM GAS  /tmp/ccVfREvW.s 			page 5


 242              		@ frame_needed = 0, uses_anonymous_args = 0
 243              		@ link register save eliminated.
 244 0000 7047     		bx	lr
 246              		.section	.text.HAL_PCD_DataInStageCallback,"ax",%progbits
 247              		.align	1
 248              		.weak	HAL_PCD_DataInStageCallback
 249              		.syntax unified
 250              		.thumb
 251              		.thumb_func
 252              		.fpu softvfp
 254              	HAL_PCD_DataInStageCallback:
 255              		@ args = 0, pretend = 0, frame = 0
 256              		@ frame_needed = 0, uses_anonymous_args = 0
 257              		@ link register save eliminated.
 258 0000 7047     		bx	lr
 260              		.section	.text.HAL_PCD_SetupStageCallback,"ax",%progbits
 261              		.align	1
 262              		.weak	HAL_PCD_SetupStageCallback
 263              		.syntax unified
 264              		.thumb
 265              		.thumb_func
 266              		.fpu softvfp
 268              	HAL_PCD_SetupStageCallback:
 269              		@ args = 0, pretend = 0, frame = 0
 270              		@ frame_needed = 0, uses_anonymous_args = 0
 271              		@ link register save eliminated.
 272 0000 7047     		bx	lr
 274              		.section	.text.HAL_PCD_SOFCallback,"ax",%progbits
 275              		.align	1
 276              		.weak	HAL_PCD_SOFCallback
 277              		.syntax unified
 278              		.thumb
 279              		.thumb_func
 280              		.fpu softvfp
 282              	HAL_PCD_SOFCallback:
 283              		@ args = 0, pretend = 0, frame = 0
 284              		@ frame_needed = 0, uses_anonymous_args = 0
 285              		@ link register save eliminated.
 286 0000 7047     		bx	lr
 288              		.section	.text.HAL_PCD_ResetCallback,"ax",%progbits
 289              		.align	1
 290              		.weak	HAL_PCD_ResetCallback
 291              		.syntax unified
 292              		.thumb
 293              		.thumb_func
 294              		.fpu softvfp
 296              	HAL_PCD_ResetCallback:
 297              		@ args = 0, pretend = 0, frame = 0
 298              		@ frame_needed = 0, uses_anonymous_args = 0
 299              		@ link register save eliminated.
 300 0000 7047     		bx	lr
 302              		.section	.text.HAL_PCD_SuspendCallback,"ax",%progbits
 303              		.align	1
 304              		.weak	HAL_PCD_SuspendCallback
 305              		.syntax unified
 306              		.thumb
 307              		.thumb_func
ARM GAS  /tmp/ccVfREvW.s 			page 6


 308              		.fpu softvfp
 310              	HAL_PCD_SuspendCallback:
 311              		@ args = 0, pretend = 0, frame = 0
 312              		@ frame_needed = 0, uses_anonymous_args = 0
 313              		@ link register save eliminated.
 314 0000 7047     		bx	lr
 316              		.section	.text.HAL_PCD_ResumeCallback,"ax",%progbits
 317              		.align	1
 318              		.weak	HAL_PCD_ResumeCallback
 319              		.syntax unified
 320              		.thumb
 321              		.thumb_func
 322              		.fpu softvfp
 324              	HAL_PCD_ResumeCallback:
 325              		@ args = 0, pretend = 0, frame = 0
 326              		@ frame_needed = 0, uses_anonymous_args = 0
 327              		@ link register save eliminated.
 328 0000 7047     		bx	lr
 330              		.section	.text.HAL_PCD_ISOOUTIncompleteCallback,"ax",%progbits
 331              		.align	1
 332              		.weak	HAL_PCD_ISOOUTIncompleteCallback
 333              		.syntax unified
 334              		.thumb
 335              		.thumb_func
 336              		.fpu softvfp
 338              	HAL_PCD_ISOOUTIncompleteCallback:
 339              		@ args = 0, pretend = 0, frame = 0
 340              		@ frame_needed = 0, uses_anonymous_args = 0
 341              		@ link register save eliminated.
 342 0000 7047     		bx	lr
 344              		.section	.text.HAL_PCD_ISOINIncompleteCallback,"ax",%progbits
 345              		.align	1
 346              		.weak	HAL_PCD_ISOINIncompleteCallback
 347              		.syntax unified
 348              		.thumb
 349              		.thumb_func
 350              		.fpu softvfp
 352              	HAL_PCD_ISOINIncompleteCallback:
 353              		@ args = 0, pretend = 0, frame = 0
 354              		@ frame_needed = 0, uses_anonymous_args = 0
 355              		@ link register save eliminated.
 356 0000 7047     		bx	lr
 358              		.section	.text.HAL_PCD_ConnectCallback,"ax",%progbits
 359              		.align	1
 360              		.weak	HAL_PCD_ConnectCallback
 361              		.syntax unified
 362              		.thumb
 363              		.thumb_func
 364              		.fpu softvfp
 366              	HAL_PCD_ConnectCallback:
 367              		@ args = 0, pretend = 0, frame = 0
 368              		@ frame_needed = 0, uses_anonymous_args = 0
 369              		@ link register save eliminated.
 370 0000 7047     		bx	lr
 372              		.section	.text.HAL_PCD_DisconnectCallback,"ax",%progbits
 373              		.align	1
 374              		.weak	HAL_PCD_DisconnectCallback
ARM GAS  /tmp/ccVfREvW.s 			page 7


 375              		.syntax unified
 376              		.thumb
 377              		.thumb_func
 378              		.fpu softvfp
 380              	HAL_PCD_DisconnectCallback:
 381              		@ args = 0, pretend = 0, frame = 0
 382              		@ frame_needed = 0, uses_anonymous_args = 0
 383              		@ link register save eliminated.
 384 0000 7047     		bx	lr
 386              		.section	.text.HAL_PCD_DevConnect,"ax",%progbits
 387              		.align	1
 388              		.global	HAL_PCD_DevConnect
 389              		.syntax unified
 390              		.thumb
 391              		.thumb_func
 392              		.fpu softvfp
 394              	HAL_PCD_DevConnect:
 395              		@ args = 0, pretend = 0, frame = 0
 396              		@ frame_needed = 0, uses_anonymous_args = 0
 397 0000 90F82834 		ldrb	r3, [r0, #1064]	@ zero_extendqisi2
 398 0004 012B     		cmp	r3, #1
 399 0006 0DD0     		beq	.L52
 400 0008 10B5     		push	{r4, lr}
 401 000a 0446     		mov	r4, r0
 402 000c 0121     		movs	r1, #1
 403 000e 80F82814 		strb	r1, [r0, #1064]
 404 0012 FFF7FEFF 		bl	HAL_PCDEx_SetConnectionState
 405 0016 2068     		ldr	r0, [r4]
 406 0018 FFF7FEFF 		bl	USB_DevConnect
 407 001c 0020     		movs	r0, #0
 408 001e 84F82804 		strb	r0, [r4, #1064]
 409 0022 10BD     		pop	{r4, pc}
 410              	.L52:
 411 0024 0220     		movs	r0, #2
 412 0026 7047     		bx	lr
 414              		.section	.text.HAL_PCD_DevDisconnect,"ax",%progbits
 415              		.align	1
 416              		.global	HAL_PCD_DevDisconnect
 417              		.syntax unified
 418              		.thumb
 419              		.thumb_func
 420              		.fpu softvfp
 422              	HAL_PCD_DevDisconnect:
 423              		@ args = 0, pretend = 0, frame = 0
 424              		@ frame_needed = 0, uses_anonymous_args = 0
 425 0000 90F82834 		ldrb	r3, [r0, #1064]	@ zero_extendqisi2
 426 0004 012B     		cmp	r3, #1
 427 0006 0ED0     		beq	.L59
 428 0008 10B5     		push	{r4, lr}
 429 000a 0446     		mov	r4, r0
 430 000c 0123     		movs	r3, #1
 431 000e 80F82834 		strb	r3, [r0, #1064]
 432 0012 0021     		movs	r1, #0
 433 0014 FFF7FEFF 		bl	HAL_PCDEx_SetConnectionState
 434 0018 2068     		ldr	r0, [r4]
 435 001a FFF7FEFF 		bl	USB_DevDisconnect
 436 001e 0020     		movs	r0, #0
ARM GAS  /tmp/ccVfREvW.s 			page 8


 437 0020 84F82804 		strb	r0, [r4, #1064]
 438 0024 10BD     		pop	{r4, pc}
 439              	.L59:
 440 0026 0220     		movs	r0, #2
 441 0028 7047     		bx	lr
 443              		.section	.text.HAL_PCD_SetAddress,"ax",%progbits
 444              		.align	1
 445              		.global	HAL_PCD_SetAddress
 446              		.syntax unified
 447              		.thumb
 448              		.thumb_func
 449              		.fpu softvfp
 451              	HAL_PCD_SetAddress:
 452              		@ args = 0, pretend = 0, frame = 0
 453              		@ frame_needed = 0, uses_anonymous_args = 0
 454 0000 90F82834 		ldrb	r3, [r0, #1064]	@ zero_extendqisi2
 455 0004 012B     		cmp	r3, #1
 456 0006 0DD0     		beq	.L66
 457 0008 10B5     		push	{r4, lr}
 458 000a 0446     		mov	r4, r0
 459 000c 0123     		movs	r3, #1
 460 000e 80F82834 		strb	r3, [r0, #1064]
 461 0012 80F82410 		strb	r1, [r0, #36]
 462 0016 0068     		ldr	r0, [r0]
 463 0018 FFF7FEFF 		bl	USB_SetDevAddress
 464 001c 0020     		movs	r0, #0
 465 001e 84F82804 		strb	r0, [r4, #1064]
 466 0022 10BD     		pop	{r4, pc}
 467              	.L66:
 468 0024 0220     		movs	r0, #2
 469 0026 7047     		bx	lr
 471              		.section	.text.HAL_PCD_EP_Open,"ax",%progbits
 472              		.align	1
 473              		.global	HAL_PCD_EP_Open
 474              		.syntax unified
 475              		.thumb
 476              		.thumb_func
 477              		.fpu softvfp
 479              	HAL_PCD_EP_Open:
 480              		@ args = 0, pretend = 0, frame = 0
 481              		@ frame_needed = 0, uses_anonymous_args = 0
 482 0000 38B5     		push	{r3, r4, r5, lr}
 483 0002 4DB2     		sxtb	r5, r1
 484 0004 002D     		cmp	r5, #0
 485 0006 1CDB     		blt	.L77
 486 0008 01F07F04 		and	r4, r1, #127
 487 000c 6401     		lsls	r4, r4, #5
 488 000e 04F50A74 		add	r4, r4, #552
 489 0012 0444     		add	r4, r4, r0
 490              	.L73:
 491 0014 01F07F01 		and	r1, r1, #127
 492 0018 2170     		strb	r1, [r4]
 493 001a ED0F     		lsrs	r5, r5, #31
 494 001c 6570     		strb	r5, [r4, #1]
 495 001e 2261     		str	r2, [r4, #16]
 496 0020 E370     		strb	r3, [r4, #3]
 497 0022 90F82834 		ldrb	r3, [r0, #1064]	@ zero_extendqisi2
ARM GAS  /tmp/ccVfREvW.s 			page 9


 498 0026 012B     		cmp	r3, #1
 499 0028 11D0     		beq	.L75
 500 002a 0546     		mov	r5, r0
 501 002c 0123     		movs	r3, #1
 502 002e 80F82834 		strb	r3, [r0, #1064]
 503 0032 2146     		mov	r1, r4
 504 0034 0068     		ldr	r0, [r0]
 505 0036 FFF7FEFF 		bl	USB_ActivateEndpoint
 506 003a 0020     		movs	r0, #0
 507 003c 85F82804 		strb	r0, [r5, #1064]
 508              	.L74:
 509 0040 38BD     		pop	{r3, r4, r5, pc}
 510              	.L77:
 511 0042 01F07F04 		and	r4, r1, #127
 512 0046 6401     		lsls	r4, r4, #5
 513 0048 2834     		adds	r4, r4, #40
 514 004a 0444     		add	r4, r4, r0
 515 004c E2E7     		b	.L73
 516              	.L75:
 517 004e 0220     		movs	r0, #2
 518 0050 F6E7     		b	.L74
 520              		.section	.text.HAL_PCD_EP_Close,"ax",%progbits
 521              		.align	1
 522              		.global	HAL_PCD_EP_Close
 523              		.syntax unified
 524              		.thumb
 525              		.thumb_func
 526              		.fpu softvfp
 528              	HAL_PCD_EP_Close:
 529              		@ args = 0, pretend = 0, frame = 0
 530              		@ frame_needed = 0, uses_anonymous_args = 0
 531 0000 4AB2     		sxtb	r2, r1
 532 0002 002A     		cmp	r2, #0
 533 0004 1BDB     		blt	.L87
 534 0006 01F07F03 		and	r3, r1, #127
 535 000a 5B01     		lsls	r3, r3, #5
 536 000c 03F50A73 		add	r3, r3, #552
 537 0010 0344     		add	r3, r3, r0
 538              	.L80:
 539 0012 01F07F01 		and	r1, r1, #127
 540 0016 1970     		strb	r1, [r3]
 541 0018 D20F     		lsrs	r2, r2, #31
 542 001a 5A70     		strb	r2, [r3, #1]
 543 001c 90F82824 		ldrb	r2, [r0, #1064]	@ zero_extendqisi2
 544 0020 012A     		cmp	r2, #1
 545 0022 12D0     		beq	.L82
 546 0024 10B5     		push	{r4, lr}
 547 0026 0446     		mov	r4, r0
 548 0028 0122     		movs	r2, #1
 549 002a 80F82824 		strb	r2, [r0, #1064]
 550 002e 1946     		mov	r1, r3
 551 0030 0068     		ldr	r0, [r0]
 552 0032 FFF7FEFF 		bl	USB_DeactivateEndpoint
 553 0036 0020     		movs	r0, #0
 554 0038 84F82804 		strb	r0, [r4, #1064]
 555 003c 10BD     		pop	{r4, pc}
 556              	.L87:
ARM GAS  /tmp/ccVfREvW.s 			page 10


 557 003e 01F07F03 		and	r3, r1, #127
 558 0042 5B01     		lsls	r3, r3, #5
 559 0044 2833     		adds	r3, r3, #40
 560 0046 0344     		add	r3, r3, r0
 561 0048 E3E7     		b	.L80
 562              	.L82:
 563 004a 0220     		movs	r0, #2
 564 004c 7047     		bx	lr
 566              		.section	.text.HAL_PCD_EP_Receive,"ax",%progbits
 567              		.align	1
 568              		.global	HAL_PCD_EP_Receive
 569              		.syntax unified
 570              		.thumb
 571              		.thumb_func
 572              		.fpu softvfp
 574              	HAL_PCD_EP_Receive:
 575              		@ args = 0, pretend = 0, frame = 0
 576              		@ frame_needed = 0, uses_anonymous_args = 0
 577 0000 70B5     		push	{r4, r5, r6, lr}
 578 0002 01F07F05 		and	r5, r1, #127
 579 0006 6C01     		lsls	r4, r5, #5
 580 0008 04F50A71 		add	r1, r4, #552
 581 000c 0144     		add	r1, r1, r0
 582 000e 0444     		add	r4, r4, r0
 583 0010 C4F83C22 		str	r2, [r4, #572]
 584 0014 05F11202 		add	r2, r5, #18
 585 0018 5201     		lsls	r2, r2, #5
 586 001a 8618     		adds	r6, r0, r2
 587 001c 8350     		str	r3, [r0, r2]
 588 001e 0023     		movs	r3, #0
 589 0020 7360     		str	r3, [r6, #4]
 590 0022 84F82932 		strb	r3, [r4, #553]
 591 0026 84F82852 		strb	r5, [r4, #552]
 592 002a 25B9     		cbnz	r5, .L89
 593 002c 0068     		ldr	r0, [r0]
 594 002e FFF7FEFF 		bl	USB_EPStartXfer
 595              	.L90:
 596 0032 0020     		movs	r0, #0
 597 0034 70BD     		pop	{r4, r5, r6, pc}
 598              	.L89:
 599 0036 0068     		ldr	r0, [r0]
 600 0038 FFF7FEFF 		bl	USB_EPStartXfer
 601 003c F9E7     		b	.L90
 603              		.section	.text.HAL_PCD_EP_GetRxCount,"ax",%progbits
 604              		.align	1
 605              		.global	HAL_PCD_EP_GetRxCount
 606              		.syntax unified
 607              		.thumb
 608              		.thumb_func
 609              		.fpu softvfp
 611              	HAL_PCD_EP_GetRxCount:
 612              		@ args = 0, pretend = 0, frame = 0
 613              		@ frame_needed = 0, uses_anonymous_args = 0
 614              		@ link register save eliminated.
 615 0000 01F00F01 		and	r1, r1, #15
 616 0004 1231     		adds	r1, r1, #18
 617 0006 00EB4111 		add	r1, r0, r1, lsl #5
ARM GAS  /tmp/ccVfREvW.s 			page 11


 618 000a 8888     		ldrh	r0, [r1, #4]
 619 000c 7047     		bx	lr
 621              		.section	.text.HAL_PCD_EP_Transmit,"ax",%progbits
 622              		.align	1
 623              		.global	HAL_PCD_EP_Transmit
 624              		.syntax unified
 625              		.thumb
 626              		.thumb_func
 627              		.fpu softvfp
 629              	HAL_PCD_EP_Transmit:
 630              		@ args = 0, pretend = 0, frame = 0
 631              		@ frame_needed = 0, uses_anonymous_args = 0
 632 0000 70B5     		push	{r4, r5, r6, lr}
 633 0002 01F07F05 		and	r5, r1, #127
 634 0006 6C01     		lsls	r4, r5, #5
 635 0008 04F12801 		add	r1, r4, #40
 636 000c 0144     		add	r1, r1, r0
 637 000e 0444     		add	r4, r4, r0
 638 0010 E263     		str	r2, [r4, #60]
 639 0012 AA1C     		adds	r2, r5, #2
 640 0014 5201     		lsls	r2, r2, #5
 641 0016 8618     		adds	r6, r0, r2
 642 0018 8350     		str	r3, [r0, r2]
 643 001a 0023     		movs	r3, #0
 644 001c 7360     		str	r3, [r6, #4]
 645 001e 0123     		movs	r3, #1
 646 0020 84F82930 		strb	r3, [r4, #41]
 647 0024 84F82850 		strb	r5, [r4, #40]
 648 0028 25B9     		cbnz	r5, .L94
 649 002a 0068     		ldr	r0, [r0]
 650 002c FFF7FEFF 		bl	USB_EPStartXfer
 651              	.L95:
 652 0030 0020     		movs	r0, #0
 653 0032 70BD     		pop	{r4, r5, r6, pc}
 654              	.L94:
 655 0034 0068     		ldr	r0, [r0]
 656 0036 FFF7FEFF 		bl	USB_EPStartXfer
 657 003a F9E7     		b	.L95
 659              		.section	.text.PCD_EP_ISR_Handler,"ax",%progbits
 660              		.align	1
 661              		.syntax unified
 662              		.thumb
 663              		.thumb_func
 664              		.fpu softvfp
 666              	PCD_EP_ISR_Handler:
 667              		@ args = 0, pretend = 0, frame = 8
 668              		@ frame_needed = 0, uses_anonymous_args = 0
 669 0000 70B5     		push	{r4, r5, r6, lr}
 670 0002 82B0     		sub	sp, sp, #8
 671 0004 0446     		mov	r4, r0
 672 0006 0023     		movs	r3, #0
 673 0008 ADF80630 		strh	r3, [sp, #6]	@ movhi
 674 000c ADF80430 		strh	r3, [sp, #4]	@ movhi
 675 0010 8DE1     		b	.L98
 676              	.L126:
 677 0012 0388     		ldrh	r3, [r0]
 678 0014 9BB2     		uxth	r3, r3
ARM GAS  /tmp/ccVfREvW.s 			page 12


 679 0016 23F4E143 		bic	r3, r3, #28800
 680 001a 23F07003 		bic	r3, r3, #112
 681 001e 9BB2     		uxth	r3, r3
 682 0020 0380     		strh	r3, [r0]	@ movhi
 683 0022 2268     		ldr	r2, [r4]
 684 0024 B2F85030 		ldrh	r3, [r2, #80]
 685 0028 94F82810 		ldrb	r1, [r4, #40]	@ zero_extendqisi2
 686 002c 03EBC103 		add	r3, r3, r1, lsl #3
 687 0030 0233     		adds	r3, r3, #2
 688 0032 02EB4303 		add	r3, r2, r3, lsl #1
 689 0036 D3F80034 		ldr	r3, [r3, #1024]
 690 003a C3F30903 		ubfx	r3, r3, #0, #10
 691 003e 6364     		str	r3, [r4, #68]
 692 0040 E26B     		ldr	r2, [r4, #60]
 693 0042 1344     		add	r3, r3, r2
 694 0044 E363     		str	r3, [r4, #60]
 695 0046 0021     		movs	r1, #0
 696 0048 2046     		mov	r0, r4
 697 004a FFF7FEFF 		bl	HAL_PCD_DataInStageCallback
 698 004e 94F82430 		ldrb	r3, [r4, #36]	@ zero_extendqisi2
 699 0052 002B     		cmp	r3, #0
 700 0054 00F06B81 		beq	.L98
 701 0058 236C     		ldr	r3, [r4, #64]
 702 005a 002B     		cmp	r3, #0
 703 005c 40F06781 		bne	.L98
 704 0060 94F82430 		ldrb	r3, [r4, #36]	@ zero_extendqisi2
 705 0064 2268     		ldr	r2, [r4]
 706 0066 43F08003 		orr	r3, r3, #128
 707 006a A2F84C30 		strh	r3, [r2, #76]	@ movhi
 708 006e 0023     		movs	r3, #0
 709 0070 84F82430 		strb	r3, [r4, #36]
 710 0074 5BE1     		b	.L98
 711              	.L127:
 712 0076 B0F85030 		ldrh	r3, [r0, #80]
 713 007a 94F82822 		ldrb	r2, [r4, #552]	@ zero_extendqisi2
 714 007e 03EBC203 		add	r3, r3, r2, lsl #3
 715 0082 0633     		adds	r3, r3, #6
 716 0084 00EB4303 		add	r3, r0, r3, lsl #1
 717 0088 D3F80034 		ldr	r3, [r3, #1024]
 718 008c C3F30903 		ubfx	r3, r3, #0, #10
 719 0090 C4F84432 		str	r3, [r4, #580]
 720 0094 B4F82C22 		ldrh	r2, [r4, #556]
 721 0098 04F22C41 		addw	r1, r4, #1068
 722 009c FFF7FEFF 		bl	USB_ReadPMA
 723 00a0 2268     		ldr	r2, [r4]
 724 00a2 1388     		ldrh	r3, [r2]
 725 00a4 23F07003 		bic	r3, r3, #112
 726 00a8 1B05     		lsls	r3, r3, #20
 727 00aa 1B0D     		lsrs	r3, r3, #20
 728 00ac 1380     		strh	r3, [r2]	@ movhi
 729 00ae 2046     		mov	r0, r4
 730 00b0 FFF7FEFF 		bl	HAL_PCD_SetupStageCallback
 731 00b4 3BE1     		b	.L98
 732              	.L128:
 733 00b6 B4F82C22 		ldrh	r2, [r4, #556]
 734 00ba D4F83C12 		ldr	r1, [r4, #572]
 735 00be FFF7FEFF 		bl	USB_ReadPMA
ARM GAS  /tmp/ccVfREvW.s 			page 13


 736 00c2 D4F84422 		ldr	r2, [r4, #580]
 737 00c6 D4F83C32 		ldr	r3, [r4, #572]
 738 00ca 1344     		add	r3, r3, r2
 739 00cc C4F83C32 		str	r3, [r4, #572]
 740 00d0 6BE1     		b	.L103
 741              	.L104:
 742 00d2 C1F34F03 		ubfx	r3, r1, #1, #16
 743 00d6 11F0010F 		tst	r1, #1
 744 00da 01D0     		beq	.L107
 745 00dc 0133     		adds	r3, r3, #1
 746 00de 9BB2     		uxth	r3, r3
 747              	.L107:
 748 00e0 9B02     		lsls	r3, r3, #10
 749 00e2 9BB2     		uxth	r3, r3
 750 00e4 C2F80034 		str	r3, [r2, #1024]
 751 00e8 7CE1     		b	.L106
 752              	.L99:
 753 00ea 30F82530 		ldrh	r3, [r0, r5, lsl #2]
 754 00ee 9BB2     		uxth	r3, r3
 755 00f0 ADF80430 		strh	r3, [sp, #4]	@ movhi
 756 00f4 BDF80430 		ldrh	r3, [sp, #4]
 757 00f8 13F4004F 		tst	r3, #32768
 758 00fc 35D1     		bne	.L122
 759              	.L108:
 760 00fe BDF80430 		ldrh	r3, [sp, #4]
 761 0102 13F0800F 		tst	r3, #128
 762 0106 00F01281 		beq	.L98
 763 010a 2268     		ldr	r2, [r4]
 764 010c 32F82530 		ldrh	r3, [r2, r5, lsl #2]
 765 0110 9BB2     		uxth	r3, r3
 766 0112 23F4E143 		bic	r3, r3, #28800
 767 0116 23F07003 		bic	r3, r3, #112
 768 011a 9BB2     		uxth	r3, r3
 769 011c 22F82530 		strh	r3, [r2, r5, lsl #2]	@ movhi
 770 0120 04EB4513 		add	r3, r4, r5, lsl #5
 771 0124 93F83230 		ldrb	r3, [r3, #50]	@ zero_extendqisi2
 772 0128 002B     		cmp	r3, #0
 773 012a 40F0B280 		bne	.L115
 774 012e 2068     		ldr	r0, [r4]
 775 0130 B0F85030 		ldrh	r3, [r0, #80]
 776 0134 04EB4512 		add	r2, r4, r5, lsl #5
 777 0138 92F82820 		ldrb	r2, [r2, #40]	@ zero_extendqisi2
 778 013c 03EBC203 		add	r3, r3, r2, lsl #3
 779 0140 0233     		adds	r3, r3, #2
 780 0142 00EB4303 		add	r3, r0, r3, lsl #1
 781 0146 D3F80034 		ldr	r3, [r3, #1024]
 782 014a C3F30903 		ubfx	r3, r3, #0, #10
 783 014e AA1C     		adds	r2, r5, #2
 784 0150 04EB4212 		add	r2, r4, r2, lsl #5
 785 0154 5360     		str	r3, [r2, #4]
 786 0156 002B     		cmp	r3, #0
 787 0158 00F0C980 		beq	.L116
 788 015c 04EB4511 		add	r1, r4, r5, lsl #5
 789 0160 8A8D     		ldrh	r2, [r1, #44]
 790 0162 C96B     		ldr	r1, [r1, #60]
 791 0164 FFF7FEFF 		bl	USB_WritePMA
 792 0168 C1E0     		b	.L116
ARM GAS  /tmp/ccVfREvW.s 			page 14


 793              	.L122:
 794 016a 30F82530 		ldrh	r3, [r0, r5, lsl #2]
 795 016e 23F07003 		bic	r3, r3, #112
 796 0172 1B05     		lsls	r3, r3, #20
 797 0174 1B0D     		lsrs	r3, r3, #20
 798 0176 20F82530 		strh	r3, [r0, r5, lsl #2]	@ movhi
 799 017a 04EB4513 		add	r3, r4, r5, lsl #5
 800 017e 93F83232 		ldrb	r3, [r3, #562]	@ zero_extendqisi2
 801 0182 D3B9     		cbnz	r3, .L109
 802 0184 2068     		ldr	r0, [r4]
 803 0186 B0F85030 		ldrh	r3, [r0, #80]
 804 018a 04EB4512 		add	r2, r4, r5, lsl #5
 805 018e 92F82822 		ldrb	r2, [r2, #552]	@ zero_extendqisi2
 806 0192 03EBC203 		add	r3, r3, r2, lsl #3
 807 0196 0633     		adds	r3, r3, #6
 808 0198 00EB4303 		add	r3, r0, r3, lsl #1
 809 019c B3F80064 		ldrh	r6, [r3, #1024]
 810 01a0 C6F30906 		ubfx	r6, r6, #0, #10
 811 01a4 86B3     		cbz	r6, .L110
 812 01a6 04EB4511 		add	r1, r4, r5, lsl #5
 813 01aa 3346     		mov	r3, r6
 814 01ac B1F82C22 		ldrh	r2, [r1, #556]
 815 01b0 D1F83C12 		ldr	r1, [r1, #572]
 816 01b4 FFF7FEFF 		bl	USB_ReadPMA
 817 01b8 26E0     		b	.L110
 818              	.L109:
 819 01ba 2068     		ldr	r0, [r4]
 820 01bc 04EB4513 		add	r3, r4, r5, lsl #5
 821 01c0 93F82822 		ldrb	r2, [r3, #552]	@ zero_extendqisi2
 822 01c4 30F82230 		ldrh	r3, [r0, r2, lsl #2]
 823 01c8 13F4804F 		tst	r3, #16384
 824 01cc 42D0     		beq	.L111
 825 01ce B0F85030 		ldrh	r3, [r0, #80]
 826 01d2 03EBC203 		add	r3, r3, r2, lsl #3
 827 01d6 0233     		adds	r3, r3, #2
 828 01d8 00EB4303 		add	r3, r0, r3, lsl #1
 829 01dc B3F80064 		ldrh	r6, [r3, #1024]
 830 01e0 C6F30906 		ubfx	r6, r6, #0, #10
 831 01e4 66BB     		cbnz	r6, .L123
 832              	.L112:
 833 01e6 2268     		ldr	r2, [r4]
 834 01e8 04EB4513 		add	r3, r4, r5, lsl #5
 835 01ec 93F82812 		ldrb	r1, [r3, #552]	@ zero_extendqisi2
 836 01f0 32F82130 		ldrh	r3, [r2, r1, lsl #2]
 837 01f4 23F0F003 		bic	r3, r3, #240
 838 01f8 1B05     		lsls	r3, r3, #20
 839 01fa 1B0D     		lsrs	r3, r3, #20
 840 01fc 43F40043 		orr	r3, r3, #32768
 841 0200 43F0C003 		orr	r3, r3, #192
 842 0204 22F82130 		strh	r3, [r2, r1, lsl #2]	@ movhi
 843              	.L110:
 844 0208 05F11203 		add	r3, r5, #18
 845 020c 5B01     		lsls	r3, r3, #5
 846 020e E118     		adds	r1, r4, r3
 847 0210 4A68     		ldr	r2, [r1, #4]
 848 0212 3244     		add	r2, r2, r6
 849 0214 4A60     		str	r2, [r1, #4]
ARM GAS  /tmp/ccVfREvW.s 			page 15


 850 0216 04EB4511 		add	r1, r4, r5, lsl #5
 851 021a D1F83C22 		ldr	r2, [r1, #572]
 852 021e 3244     		add	r2, r2, r6
 853 0220 C1F83C22 		str	r2, [r1, #572]
 854 0224 E358     		ldr	r3, [r4, r3]
 855 0226 1BB1     		cbz	r3, .L113
 856 0228 D1F83812 		ldr	r1, [r1, #568]
 857 022c 8E42     		cmp	r6, r1
 858 022e 28D2     		bcs	.L114
 859              	.L113:
 860 0230 04EB4513 		add	r3, r4, r5, lsl #5
 861 0234 93F82812 		ldrb	r1, [r3, #552]	@ zero_extendqisi2
 862 0238 2046     		mov	r0, r4
 863 023a FFF7FEFF 		bl	HAL_PCD_DataOutStageCallback
 864 023e 5EE7     		b	.L108
 865              	.L123:
 866 0240 04EB4511 		add	r1, r4, r5, lsl #5
 867 0244 3346     		mov	r3, r6
 868 0246 B1F82E22 		ldrh	r2, [r1, #558]
 869 024a D1F83C12 		ldr	r1, [r1, #572]
 870 024e FFF7FEFF 		bl	USB_ReadPMA
 871 0252 C8E7     		b	.L112
 872              	.L111:
 873 0254 B0F85030 		ldrh	r3, [r0, #80]
 874 0258 03EBC203 		add	r3, r3, r2, lsl #3
 875 025c 0633     		adds	r3, r3, #6
 876 025e 00EB4303 		add	r3, r0, r3, lsl #1
 877 0262 B3F80064 		ldrh	r6, [r3, #1024]
 878 0266 C6F30906 		ubfx	r6, r6, #0, #10
 879 026a 002E     		cmp	r6, #0
 880 026c BBD0     		beq	.L112
 881 026e 04EB4511 		add	r1, r4, r5, lsl #5
 882 0272 3346     		mov	r3, r6
 883 0274 B1F83022 		ldrh	r2, [r1, #560]
 884 0278 D1F83C12 		ldr	r1, [r1, #572]
 885 027c FFF7FEFF 		bl	USB_ReadPMA
 886 0280 B1E7     		b	.L112
 887              	.L114:
 888 0282 04EB4511 		add	r1, r4, r5, lsl #5
 889 0286 91F82812 		ldrb	r1, [r1, #552]	@ zero_extendqisi2
 890 028a 2046     		mov	r0, r4
 891 028c FFF7FEFF 		bl	HAL_PCD_EP_Receive
 892 0290 35E7     		b	.L108
 893              	.L115:
 894 0292 2068     		ldr	r0, [r4]
 895 0294 04EB4513 		add	r3, r4, r5, lsl #5
 896 0298 93F82820 		ldrb	r2, [r3, #40]	@ zero_extendqisi2
 897 029c 30F82230 		ldrh	r3, [r0, r2, lsl #2]
 898 02a0 13F0400F 		tst	r3, #64
 899 02a4 00F0B480 		beq	.L117
 900 02a8 B0F85030 		ldrh	r3, [r0, #80]
 901 02ac 03EBC203 		add	r3, r3, r2, lsl #3
 902 02b0 0233     		adds	r3, r3, #2
 903 02b2 00EB4303 		add	r3, r0, r3, lsl #1
 904 02b6 D3F80034 		ldr	r3, [r3, #1024]
 905 02ba C3F30903 		ubfx	r3, r3, #0, #10
 906 02be AA1C     		adds	r2, r5, #2
ARM GAS  /tmp/ccVfREvW.s 			page 16


 907 02c0 04EB4212 		add	r2, r4, r2, lsl #5
 908 02c4 5360     		str	r3, [r2, #4]
 909 02c6 002B     		cmp	r3, #0
 910 02c8 40F09B80 		bne	.L124
 911              	.L118:
 912 02cc 2268     		ldr	r2, [r4]
 913 02ce 04EB4513 		add	r3, r4, r5, lsl #5
 914 02d2 93F82810 		ldrb	r1, [r3, #40]	@ zero_extendqisi2
 915 02d6 32F82130 		ldrh	r3, [r2, r1, lsl #2]
 916 02da 23F0F003 		bic	r3, r3, #240
 917 02de 1B05     		lsls	r3, r3, #20
 918 02e0 1B0D     		lsrs	r3, r3, #20
 919 02e2 43F44043 		orr	r3, r3, #49152
 920 02e6 43F08003 		orr	r3, r3, #128
 921 02ea 22F82130 		strh	r3, [r2, r1, lsl #2]	@ movhi
 922              	.L116:
 923 02ee 2268     		ldr	r2, [r4]
 924 02f0 B2F85030 		ldrh	r3, [r2, #80]
 925 02f4 04EB4510 		add	r0, r4, r5, lsl #5
 926 02f8 90F82810 		ldrb	r1, [r0, #40]	@ zero_extendqisi2
 927 02fc 03EBC103 		add	r3, r3, r1, lsl #3
 928 0300 0233     		adds	r3, r3, #2
 929 0302 02EB4303 		add	r3, r2, r3, lsl #1
 930 0306 D3F80024 		ldr	r2, [r3, #1024]
 931 030a C2F30902 		ubfx	r2, r2, #0, #10
 932 030e AB1C     		adds	r3, r5, #2
 933 0310 5B01     		lsls	r3, r3, #5
 934 0312 E118     		adds	r1, r4, r3
 935 0314 4A60     		str	r2, [r1, #4]
 936 0316 C16B     		ldr	r1, [r0, #60]
 937 0318 0A44     		add	r2, r2, r1
 938 031a C263     		str	r2, [r0, #60]
 939 031c E358     		ldr	r3, [r4, r3]
 940 031e 002B     		cmp	r3, #0
 941 0320 40F08F80 		bne	.L119
 942 0324 90F82810 		ldrb	r1, [r0, #40]	@ zero_extendqisi2
 943 0328 2046     		mov	r0, r4
 944 032a FFF7FEFF 		bl	HAL_PCD_DataInStageCallback
 945              	.L98:
 946 032e 2068     		ldr	r0, [r4]
 947 0330 B0F84430 		ldrh	r3, [r0, #68]
 948 0334 9BB2     		uxth	r3, r3
 949 0336 ADF80630 		strh	r3, [sp, #6]	@ movhi
 950 033a 13F4004F 		tst	r3, #32768
 951 033e 00F08880 		beq	.L125
 952 0342 BDF80650 		ldrh	r5, [sp, #6]
 953 0346 15F00F05 		ands	r5, r5, #15
 954 034a 7FF4CEAE 		bne	.L99
 955 034e BDF80630 		ldrh	r3, [sp, #6]
 956 0352 13F0100F 		tst	r3, #16
 957 0356 3FF45CAE 		beq	.L126
 958 035a 0388     		ldrh	r3, [r0]
 959 035c 9BB2     		uxth	r3, r3
 960 035e ADF80430 		strh	r3, [sp, #4]	@ movhi
 961 0362 BDF80430 		ldrh	r3, [sp, #4]
 962 0366 13F4006F 		tst	r3, #2048
 963 036a 7FF484AE 		bne	.L127
ARM GAS  /tmp/ccVfREvW.s 			page 17


 964 036e BDF80430 		ldrh	r3, [sp, #4]
 965 0372 13F4004F 		tst	r3, #32768
 966 0376 DAD0     		beq	.L98
 967 0378 0388     		ldrh	r3, [r0]
 968 037a 23F07003 		bic	r3, r3, #112
 969 037e 1B05     		lsls	r3, r3, #20
 970 0380 1B0D     		lsrs	r3, r3, #20
 971 0382 0380     		strh	r3, [r0]	@ movhi
 972 0384 2068     		ldr	r0, [r4]
 973 0386 B0F85030 		ldrh	r3, [r0, #80]
 974 038a 94F82822 		ldrb	r2, [r4, #552]	@ zero_extendqisi2
 975 038e 03EBC203 		add	r3, r3, r2, lsl #3
 976 0392 0633     		adds	r3, r3, #6
 977 0394 00EB4303 		add	r3, r0, r3, lsl #1
 978 0398 D3F80034 		ldr	r3, [r3, #1024]
 979 039c C3F30903 		ubfx	r3, r3, #0, #10
 980 03a0 C4F84432 		str	r3, [r4, #580]
 981 03a4 002B     		cmp	r3, #0
 982 03a6 7FF486AE 		bne	.L128
 983              	.L103:
 984 03aa 0021     		movs	r1, #0
 985 03ac 2046     		mov	r0, r4
 986 03ae FFF7FEFF 		bl	HAL_PCD_DataOutStageCallback
 987 03b2 2368     		ldr	r3, [r4]
 988 03b4 B3F85020 		ldrh	r2, [r3, #80]
 989 03b8 0632     		adds	r2, r2, #6
 990 03ba 03EB4202 		add	r2, r3, r2, lsl #1
 991 03be D4F83812 		ldr	r1, [r4, #568]
 992 03c2 3E29     		cmp	r1, #62
 993 03c4 7FF685AE 		bls	.L104
 994 03c8 C1F34F13 		ubfx	r3, r1, #5, #16
 995 03cc 11F01F0F 		tst	r1, #31
 996 03d0 01D1     		bne	.L105
 997 03d2 013B     		subs	r3, r3, #1
 998 03d4 9BB2     		uxth	r3, r3
 999              	.L105:
 1000 03d6 6FEAC363 		mvn	r3, r3, lsl #27
 1001 03da 6FEA5343 		mvn	r3, r3, lsr #17
 1002 03de 9BB2     		uxth	r3, r3
 1003 03e0 C2F80034 		str	r3, [r2, #1024]
 1004              	.L106:
 1005 03e4 2268     		ldr	r2, [r4]
 1006 03e6 1388     		ldrh	r3, [r2]
 1007 03e8 9BB2     		uxth	r3, r3
 1008 03ea 23F48043 		bic	r3, r3, #16384
 1009 03ee 23F07003 		bic	r3, r3, #112
 1010 03f2 83F44053 		eor	r3, r3, #12288
 1011 03f6 43F40043 		orr	r3, r3, #32768
 1012 03fa 43F08003 		orr	r3, r3, #128
 1013 03fe 1380     		strh	r3, [r2]	@ movhi
 1014 0400 95E7     		b	.L98
 1015              	.L124:
 1016 0402 04EB4511 		add	r1, r4, r5, lsl #5
 1017 0406 CA8D     		ldrh	r2, [r1, #46]
 1018 0408 C96B     		ldr	r1, [r1, #60]
 1019 040a FFF7FEFF 		bl	USB_WritePMA
 1020 040e 5DE7     		b	.L118
ARM GAS  /tmp/ccVfREvW.s 			page 18


 1021              	.L117:
 1022 0410 B0F85030 		ldrh	r3, [r0, #80]
 1023 0414 03EBC203 		add	r3, r3, r2, lsl #3
 1024 0418 0633     		adds	r3, r3, #6
 1025 041a 00EB4303 		add	r3, r0, r3, lsl #1
 1026 041e D3F80034 		ldr	r3, [r3, #1024]
 1027 0422 C3F30903 		ubfx	r3, r3, #0, #10
 1028 0426 AA1C     		adds	r2, r5, #2
 1029 0428 04EB4212 		add	r2, r4, r2, lsl #5
 1030 042c 5360     		str	r3, [r2, #4]
 1031 042e 002B     		cmp	r3, #0
 1032 0430 3FF44CAF 		beq	.L118
 1033 0434 04EB4511 		add	r1, r4, r5, lsl #5
 1034 0438 0A8E     		ldrh	r2, [r1, #48]
 1035 043a C96B     		ldr	r1, [r1, #60]
 1036 043c FFF7FEFF 		bl	USB_WritePMA
 1037 0440 44E7     		b	.L118
 1038              	.L119:
 1039 0442 04EB4515 		add	r5, r4, r5, lsl #5
 1040 0446 95F82810 		ldrb	r1, [r5, #40]	@ zero_extendqisi2
 1041 044a 2046     		mov	r0, r4
 1042 044c FFF7FEFF 		bl	HAL_PCD_EP_Transmit
 1043 0450 6DE7     		b	.L98
 1044              	.L125:
 1045 0452 0020     		movs	r0, #0
 1046 0454 02B0     		add	sp, sp, #8
 1047              		@ sp needed
 1048 0456 70BD     		pop	{r4, r5, r6, pc}
 1050              		.section	.text.HAL_PCD_IRQHandler,"ax",%progbits
 1051              		.align	1
 1052              		.global	HAL_PCD_IRQHandler
 1053              		.syntax unified
 1054              		.thumb
 1055              		.thumb_func
 1056              		.fpu softvfp
 1058              	HAL_PCD_IRQHandler:
 1059              		@ args = 0, pretend = 0, frame = 0
 1060              		@ frame_needed = 0, uses_anonymous_args = 0
 1061 0000 10B5     		push	{r4, lr}
 1062 0002 0446     		mov	r4, r0
 1063 0004 0068     		ldr	r0, [r0]
 1064 0006 FFF7FEFF 		bl	USB_ReadInterrupts
 1065 000a 10F4004F 		tst	r0, #32768
 1066 000e 45D1     		bne	.L139
 1067              	.L130:
 1068 0010 2068     		ldr	r0, [r4]
 1069 0012 FFF7FEFF 		bl	USB_ReadInterrupts
 1070 0016 10F4806F 		tst	r0, #1024
 1071 001a 43D1     		bne	.L140
 1072              	.L131:
 1073 001c 2068     		ldr	r0, [r4]
 1074 001e FFF7FEFF 		bl	USB_ReadInterrupts
 1075 0022 10F4804F 		tst	r0, #16384
 1076 0026 08D0     		beq	.L132
 1077 0028 2268     		ldr	r2, [r4]
 1078 002a B2F84430 		ldrh	r3, [r2, #68]
 1079 002e 9BB2     		uxth	r3, r3
ARM GAS  /tmp/ccVfREvW.s 			page 19


 1080 0030 23F48043 		bic	r3, r3, #16384
 1081 0034 9BB2     		uxth	r3, r3
 1082 0036 A2F84430 		strh	r3, [r2, #68]	@ movhi
 1083              	.L132:
 1084 003a 2068     		ldr	r0, [r4]
 1085 003c FFF7FEFF 		bl	USB_ReadInterrupts
 1086 0040 10F4005F 		tst	r0, #8192
 1087 0044 08D0     		beq	.L133
 1088 0046 2268     		ldr	r2, [r4]
 1089 0048 B2F84430 		ldrh	r3, [r2, #68]
 1090 004c 9BB2     		uxth	r3, r3
 1091 004e 23F40053 		bic	r3, r3, #8192
 1092 0052 9BB2     		uxth	r3, r3
 1093 0054 A2F84430 		strh	r3, [r2, #68]	@ movhi
 1094              	.L133:
 1095 0058 2068     		ldr	r0, [r4]
 1096 005a FFF7FEFF 		bl	USB_ReadInterrupts
 1097 005e 10F4805F 		tst	r0, #4096
 1098 0062 30D1     		bne	.L141
 1099              	.L134:
 1100 0064 2068     		ldr	r0, [r4]
 1101 0066 FFF7FEFF 		bl	USB_ReadInterrupts
 1102 006a 10F4006F 		tst	r0, #2048
 1103 006e 49D1     		bne	.L142
 1104              	.L135:
 1105 0070 2068     		ldr	r0, [r4]
 1106 0072 FFF7FEFF 		bl	USB_ReadInterrupts
 1107 0076 10F4007F 		tst	r0, #512
 1108 007a 64D1     		bne	.L143
 1109              	.L136:
 1110 007c 2068     		ldr	r0, [r4]
 1111 007e FFF7FEFF 		bl	USB_ReadInterrupts
 1112 0082 10F4807F 		tst	r0, #256
 1113 0086 08D0     		beq	.L129
 1114 0088 2268     		ldr	r2, [r4]
 1115 008a B2F84430 		ldrh	r3, [r2, #68]
 1116 008e 9BB2     		uxth	r3, r3
 1117 0090 23F48073 		bic	r3, r3, #256
 1118 0094 9BB2     		uxth	r3, r3
 1119 0096 A2F84430 		strh	r3, [r2, #68]	@ movhi
 1120              	.L129:
 1121 009a 10BD     		pop	{r4, pc}
 1122              	.L139:
 1123 009c 2046     		mov	r0, r4
 1124 009e FFF7FEFF 		bl	PCD_EP_ISR_Handler
 1125 00a2 B5E7     		b	.L130
 1126              	.L140:
 1127 00a4 2268     		ldr	r2, [r4]
 1128 00a6 B2F84430 		ldrh	r3, [r2, #68]
 1129 00aa 9BB2     		uxth	r3, r3
 1130 00ac 23F48063 		bic	r3, r3, #1024
 1131 00b0 9BB2     		uxth	r3, r3
 1132 00b2 A2F84430 		strh	r3, [r2, #68]	@ movhi
 1133 00b6 2046     		mov	r0, r4
 1134 00b8 FFF7FEFF 		bl	HAL_PCD_ResetCallback
 1135 00bc 0021     		movs	r1, #0
 1136 00be 2046     		mov	r0, r4
ARM GAS  /tmp/ccVfREvW.s 			page 20


 1137 00c0 FFF7FEFF 		bl	HAL_PCD_SetAddress
 1138 00c4 AAE7     		b	.L131
 1139              	.L141:
 1140 00c6 2268     		ldr	r2, [r4]
 1141 00c8 B2F84030 		ldrh	r3, [r2, #64]
 1142 00cc 9BB2     		uxth	r3, r3
 1143 00ce 23F00403 		bic	r3, r3, #4
 1144 00d2 9BB2     		uxth	r3, r3
 1145 00d4 A2F84030 		strh	r3, [r2, #64]	@ movhi
 1146 00d8 2268     		ldr	r2, [r4]
 1147 00da B2F84030 		ldrh	r3, [r2, #64]
 1148 00de 9BB2     		uxth	r3, r3
 1149 00e0 23F00803 		bic	r3, r3, #8
 1150 00e4 9BB2     		uxth	r3, r3
 1151 00e6 A2F84030 		strh	r3, [r2, #64]	@ movhi
 1152 00ea 2046     		mov	r0, r4
 1153 00ec FFF7FEFF 		bl	HAL_PCD_ResumeCallback
 1154 00f0 2268     		ldr	r2, [r4]
 1155 00f2 B2F84430 		ldrh	r3, [r2, #68]
 1156 00f6 9BB2     		uxth	r3, r3
 1157 00f8 23F48053 		bic	r3, r3, #4096
 1158 00fc 9BB2     		uxth	r3, r3
 1159 00fe A2F84430 		strh	r3, [r2, #68]	@ movhi
 1160 0102 AFE7     		b	.L134
 1161              	.L142:
 1162 0104 2268     		ldr	r2, [r4]
 1163 0106 B2F84030 		ldrh	r3, [r2, #64]
 1164 010a 43F00803 		orr	r3, r3, #8
 1165 010e A2F84030 		strh	r3, [r2, #64]	@ movhi
 1166 0112 2268     		ldr	r2, [r4]
 1167 0114 B2F84430 		ldrh	r3, [r2, #68]
 1168 0118 9BB2     		uxth	r3, r3
 1169 011a 23F40063 		bic	r3, r3, #2048
 1170 011e 9BB2     		uxth	r3, r3
 1171 0120 A2F84430 		strh	r3, [r2, #68]	@ movhi
 1172 0124 2268     		ldr	r2, [r4]
 1173 0126 B2F84030 		ldrh	r3, [r2, #64]
 1174 012a 43F00403 		orr	r3, r3, #4
 1175 012e A2F84030 		strh	r3, [r2, #64]	@ movhi
 1176 0132 2068     		ldr	r0, [r4]
 1177 0134 FFF7FEFF 		bl	USB_ReadInterrupts
 1178 0138 10F4805F 		tst	r0, #4096
 1179 013c 98D1     		bne	.L135
 1180 013e 2046     		mov	r0, r4
 1181 0140 FFF7FEFF 		bl	HAL_PCD_SuspendCallback
 1182 0144 94E7     		b	.L135
 1183              	.L143:
 1184 0146 2268     		ldr	r2, [r4]
 1185 0148 B2F84430 		ldrh	r3, [r2, #68]
 1186 014c 9BB2     		uxth	r3, r3
 1187 014e 23F40073 		bic	r3, r3, #512
 1188 0152 9BB2     		uxth	r3, r3
 1189 0154 A2F84430 		strh	r3, [r2, #68]	@ movhi
 1190 0158 2046     		mov	r0, r4
 1191 015a FFF7FEFF 		bl	HAL_PCD_SOFCallback
 1192 015e 8DE7     		b	.L136
 1194              		.section	.text.HAL_PCD_EP_SetStall,"ax",%progbits
ARM GAS  /tmp/ccVfREvW.s 			page 21


 1195              		.align	1
 1196              		.global	HAL_PCD_EP_SetStall
 1197              		.syntax unified
 1198              		.thumb
 1199              		.thumb_func
 1200              		.fpu softvfp
 1202              	HAL_PCD_EP_SetStall:
 1203              		@ args = 0, pretend = 0, frame = 0
 1204              		@ frame_needed = 0, uses_anonymous_args = 0
 1205 0000 38B5     		push	{r3, r4, r5, lr}
 1206 0002 4AB2     		sxtb	r2, r1
 1207 0004 002A     		cmp	r2, #0
 1208 0006 1BDB     		blt	.L151
 1209 0008 4B01     		lsls	r3, r1, #5
 1210 000a 03F50A73 		add	r3, r3, #552
 1211 000e 0344     		add	r3, r3, r0
 1212              	.L146:
 1213 0010 0124     		movs	r4, #1
 1214 0012 9C70     		strb	r4, [r3, #2]
 1215 0014 01F07F05 		and	r5, r1, #127
 1216 0018 1D70     		strb	r5, [r3]
 1217 001a D20F     		lsrs	r2, r2, #31
 1218 001c 5A70     		strb	r2, [r3, #1]
 1219 001e 90F82824 		ldrb	r2, [r0, #1064]	@ zero_extendqisi2
 1220 0022 A242     		cmp	r2, r4
 1221 0024 18D0     		beq	.L149
 1222 0026 0446     		mov	r4, r0
 1223 0028 0122     		movs	r2, #1
 1224 002a 80F82824 		strb	r2, [r0, #1064]
 1225 002e 1946     		mov	r1, r3
 1226 0030 0068     		ldr	r0, [r0]
 1227 0032 FFF7FEFF 		bl	USB_EPSetStall
 1228 0036 4DB1     		cbz	r5, .L152
 1229              	.L148:
 1230 0038 0020     		movs	r0, #0
 1231 003a 84F82804 		strb	r0, [r4, #1064]
 1232              	.L147:
 1233 003e 38BD     		pop	{r3, r4, r5, pc}
 1234              	.L151:
 1235 0040 01F07F03 		and	r3, r1, #127
 1236 0044 5B01     		lsls	r3, r3, #5
 1237 0046 2833     		adds	r3, r3, #40
 1238 0048 0344     		add	r3, r3, r0
 1239 004a E1E7     		b	.L146
 1240              	.L152:
 1241 004c 04F22C41 		addw	r1, r4, #1068
 1242 0050 2068     		ldr	r0, [r4]
 1243 0052 FFF7FEFF 		bl	USB_EP0_OutStart
 1244 0056 EFE7     		b	.L148
 1245              	.L149:
 1246 0058 0220     		movs	r0, #2
 1247 005a F0E7     		b	.L147
 1249              		.section	.text.HAL_PCD_EP_ClrStall,"ax",%progbits
 1250              		.align	1
 1251              		.global	HAL_PCD_EP_ClrStall
 1252              		.syntax unified
 1253              		.thumb
ARM GAS  /tmp/ccVfREvW.s 			page 22


 1254              		.thumb_func
 1255              		.fpu softvfp
 1257              	HAL_PCD_EP_ClrStall:
 1258              		@ args = 0, pretend = 0, frame = 0
 1259              		@ frame_needed = 0, uses_anonymous_args = 0
 1260 0000 10B5     		push	{r4, lr}
 1261 0002 4AB2     		sxtb	r2, r1
 1262 0004 002A     		cmp	r2, #0
 1263 0006 1ADB     		blt	.L159
 1264 0008 4B01     		lsls	r3, r1, #5
 1265 000a 03F50A73 		add	r3, r3, #552
 1266 000e 0344     		add	r3, r3, r0
 1267              	.L155:
 1268 0010 0024     		movs	r4, #0
 1269 0012 9C70     		strb	r4, [r3, #2]
 1270 0014 01F07F01 		and	r1, r1, #127
 1271 0018 1970     		strb	r1, [r3]
 1272 001a D20F     		lsrs	r2, r2, #31
 1273 001c 5A70     		strb	r2, [r3, #1]
 1274 001e 90F82824 		ldrb	r2, [r0, #1064]	@ zero_extendqisi2
 1275 0022 012A     		cmp	r2, #1
 1276 0024 11D0     		beq	.L157
 1277 0026 0446     		mov	r4, r0
 1278 0028 0122     		movs	r2, #1
 1279 002a 80F82824 		strb	r2, [r0, #1064]
 1280 002e 1946     		mov	r1, r3
 1281 0030 0068     		ldr	r0, [r0]
 1282 0032 FFF7FEFF 		bl	USB_EPClearStall
 1283 0036 0020     		movs	r0, #0
 1284 0038 84F82804 		strb	r0, [r4, #1064]
 1285              	.L156:
 1286 003c 10BD     		pop	{r4, pc}
 1287              	.L159:
 1288 003e 01F07F03 		and	r3, r1, #127
 1289 0042 5B01     		lsls	r3, r3, #5
 1290 0044 2833     		adds	r3, r3, #40
 1291 0046 0344     		add	r3, r3, r0
 1292 0048 E2E7     		b	.L155
 1293              	.L157:
 1294 004a 0220     		movs	r0, #2
 1295 004c F6E7     		b	.L156
 1297              		.section	.text.HAL_PCD_EP_Flush,"ax",%progbits
 1298              		.align	1
 1299              		.global	HAL_PCD_EP_Flush
 1300              		.syntax unified
 1301              		.thumb
 1302              		.thumb_func
 1303              		.fpu softvfp
 1305              	HAL_PCD_EP_Flush:
 1306              		@ args = 0, pretend = 0, frame = 0
 1307              		@ frame_needed = 0, uses_anonymous_args = 0
 1308 0000 90F82834 		ldrb	r3, [r0, #1064]	@ zero_extendqisi2
 1309 0004 012B     		cmp	r3, #1
 1310 0006 14D0     		beq	.L164
 1311 0008 10B5     		push	{r4, lr}
 1312 000a 0446     		mov	r4, r0
 1313 000c 0123     		movs	r3, #1
ARM GAS  /tmp/ccVfREvW.s 			page 23


 1314 000e 80F82834 		strb	r3, [r0, #1064]
 1315 0012 11F0800F 		tst	r1, #128
 1316 0016 06D1     		bne	.L169
 1317 0018 0068     		ldr	r0, [r0]
 1318 001a FFF7FEFF 		bl	USB_FlushRxFifo
 1319              	.L163:
 1320 001e 0020     		movs	r0, #0
 1321 0020 84F82804 		strb	r0, [r4, #1064]
 1322 0024 10BD     		pop	{r4, pc}
 1323              	.L169:
 1324 0026 01F07F01 		and	r1, r1, #127
 1325 002a 0068     		ldr	r0, [r0]
 1326 002c FFF7FEFF 		bl	USB_FlushTxFifo
 1327 0030 F5E7     		b	.L163
 1328              	.L164:
 1329 0032 0220     		movs	r0, #2
 1330 0034 7047     		bx	lr
 1332              		.section	.text.HAL_PCD_ActivateRemoteWakeup,"ax",%progbits
 1333              		.align	1
 1334              		.global	HAL_PCD_ActivateRemoteWakeup
 1335              		.syntax unified
 1336              		.thumb
 1337              		.thumb_func
 1338              		.fpu softvfp
 1340              	HAL_PCD_ActivateRemoteWakeup:
 1341              		@ args = 0, pretend = 0, frame = 0
 1342              		@ frame_needed = 0, uses_anonymous_args = 0
 1343 0000 08B5     		push	{r3, lr}
 1344 0002 0068     		ldr	r0, [r0]
 1345 0004 FFF7FEFF 		bl	USB_ActivateRemoteWakeup
 1346 0008 08BD     		pop	{r3, pc}
 1348              		.section	.text.HAL_PCD_DeActivateRemoteWakeup,"ax",%progbits
 1349              		.align	1
 1350              		.global	HAL_PCD_DeActivateRemoteWakeup
 1351              		.syntax unified
 1352              		.thumb
 1353              		.thumb_func
 1354              		.fpu softvfp
 1356              	HAL_PCD_DeActivateRemoteWakeup:
 1357              		@ args = 0, pretend = 0, frame = 0
 1358              		@ frame_needed = 0, uses_anonymous_args = 0
 1359 0000 08B5     		push	{r3, lr}
 1360 0002 0068     		ldr	r0, [r0]
 1361 0004 FFF7FEFF 		bl	USB_DeActivateRemoteWakeup
 1362 0008 08BD     		pop	{r3, pc}
 1364              		.section	.text.HAL_PCD_GetState,"ax",%progbits
 1365              		.align	1
 1366              		.global	HAL_PCD_GetState
 1367              		.syntax unified
 1368              		.thumb
 1369              		.thumb_func
 1370              		.fpu softvfp
 1372              	HAL_PCD_GetState:
 1373              		@ args = 0, pretend = 0, frame = 0
 1374              		@ frame_needed = 0, uses_anonymous_args = 0
 1375              		@ link register save eliminated.
 1376 0000 90F82904 		ldrb	r0, [r0, #1065]	@ zero_extendqisi2
ARM GAS  /tmp/ccVfREvW.s 			page 24


 1377 0004 7047     		bx	lr
 1379              		.ident	"GCC: (GNU Tools for Arm Embedded Processors 8-2018-q4-major) 8.2.1 20181213 (release) [gcc
ARM GAS  /tmp/ccVfREvW.s 			page 25

