ARM GAS  /tmp/ccKmR4aC.s 			page 1


   1              		.cpu cortex-m3
   2              		.eabi_attribute 20, 1
   3              		.eabi_attribute 21, 1
   4              		.eabi_attribute 23, 3
   5              		.eabi_attribute 24, 1
   6              		.eabi_attribute 25, 1
   7              		.eabi_attribute 26, 1
   8              		.eabi_attribute 30, 1
   9              		.eabi_attribute 34, 1
  10              		.eabi_attribute 18, 4
  11              		.file	"stm32f1xx_hal_flash_ex.c"
  12              		.text
  13              		.section	.text.FLASH_MassErase,"ax",%progbits
  14              		.align	1
  15              		.arch armv7-m
  16              		.syntax unified
  17              		.thumb
  18              		.thumb_func
  19              		.fpu softvfp
  21              	FLASH_MassErase:
  22              		@ args = 0, pretend = 0, frame = 0
  23              		@ frame_needed = 0, uses_anonymous_args = 0
  24              		@ link register save eliminated.
  25 0000 064B     		ldr	r3, .L2
  26 0002 0022     		movs	r2, #0
  27 0004 DA61     		str	r2, [r3, #28]
  28 0006 064B     		ldr	r3, .L2+4
  29 0008 1A69     		ldr	r2, [r3, #16]
  30 000a 42F00402 		orr	r2, r2, #4
  31 000e 1A61     		str	r2, [r3, #16]
  32 0010 1A69     		ldr	r2, [r3, #16]
  33 0012 42F04002 		orr	r2, r2, #64
  34 0016 1A61     		str	r2, [r3, #16]
  35 0018 7047     		bx	lr
  36              	.L3:
  37 001a 00BF     		.align	2
  38              	.L2:
  39 001c 00000000 		.word	pFlash
  40 0020 00200240 		.word	1073881088
  42              		.section	.text.FLASH_OB_GetWRP,"ax",%progbits
  43              		.align	1
  44              		.syntax unified
  45              		.thumb
  46              		.thumb_func
  47              		.fpu softvfp
  49              	FLASH_OB_GetWRP:
  50              		@ args = 0, pretend = 0, frame = 0
  51              		@ frame_needed = 0, uses_anonymous_args = 0
  52              		@ link register save eliminated.
  53 0000 014B     		ldr	r3, .L5
  54 0002 186A     		ldr	r0, [r3, #32]
  55 0004 7047     		bx	lr
  56              	.L6:
  57 0006 00BF     		.align	2
  58              	.L5:
  59 0008 00200240 		.word	1073881088
  61              		.section	.text.FLASH_OB_GetRDP,"ax",%progbits
ARM GAS  /tmp/ccKmR4aC.s 			page 2


  62              		.align	1
  63              		.syntax unified
  64              		.thumb
  65              		.thumb_func
  66              		.fpu softvfp
  68              	FLASH_OB_GetRDP:
  69              		@ args = 0, pretend = 0, frame = 0
  70              		@ frame_needed = 0, uses_anonymous_args = 0
  71              		@ link register save eliminated.
  72 0000 044B     		ldr	r3, .L10
  73 0002 DB69     		ldr	r3, [r3, #28]
  74 0004 13F0020F 		tst	r3, #2
  75 0008 01D0     		beq	.L9
  76 000a 0020     		movs	r0, #0
  77 000c 7047     		bx	lr
  78              	.L9:
  79 000e A520     		movs	r0, #165
  80 0010 7047     		bx	lr
  81              	.L11:
  82 0012 00BF     		.align	2
  83              	.L10:
  84 0014 00200240 		.word	1073881088
  86              		.section	.text.FLASH_OB_GetUser,"ax",%progbits
  87              		.align	1
  88              		.syntax unified
  89              		.thumb
  90              		.thumb_func
  91              		.fpu softvfp
  93              	FLASH_OB_GetUser:
  94              		@ args = 0, pretend = 0, frame = 0
  95              		@ frame_needed = 0, uses_anonymous_args = 0
  96              		@ link register save eliminated.
  97 0000 024B     		ldr	r3, .L13
  98 0002 D869     		ldr	r0, [r3, #28]
  99 0004 C0F38200 		ubfx	r0, r0, #2, #3
 100 0008 7047     		bx	lr
 101              	.L14:
 102 000a 00BF     		.align	2
 103              	.L13:
 104 000c 00200240 		.word	1073881088
 106              		.section	.text.FLASH_OB_RDP_LevelConfig,"ax",%progbits
 107              		.align	1
 108              		.syntax unified
 109              		.thumb
 110              		.thumb_func
 111              		.fpu softvfp
 113              	FLASH_OB_RDP_LevelConfig:
 114              		@ args = 0, pretend = 0, frame = 0
 115              		@ frame_needed = 0, uses_anonymous_args = 0
 116 0000 38B5     		push	{r3, r4, r5, lr}
 117 0002 0546     		mov	r5, r0
 118 0004 4CF25030 		movw	r0, #50000
 119 0008 FFF7FEFF 		bl	FLASH_WaitForLastOperation
 120 000c 0346     		mov	r3, r0
 121 000e 08B1     		cbz	r0, .L18
 122              	.L16:
 123 0010 1846     		mov	r0, r3
ARM GAS  /tmp/ccKmR4aC.s 			page 3


 124 0012 38BD     		pop	{r3, r4, r5, pc}
 125              	.L18:
 126 0014 134B     		ldr	r3, .L19
 127 0016 0022     		movs	r2, #0
 128 0018 DA61     		str	r2, [r3, #28]
 129 001a 134C     		ldr	r4, .L19+4
 130 001c 2369     		ldr	r3, [r4, #16]
 131 001e 43F02003 		orr	r3, r3, #32
 132 0022 2361     		str	r3, [r4, #16]
 133 0024 2369     		ldr	r3, [r4, #16]
 134 0026 43F04003 		orr	r3, r3, #64
 135 002a 2361     		str	r3, [r4, #16]
 136 002c 4CF25030 		movw	r0, #50000
 137 0030 FFF7FEFF 		bl	FLASH_WaitForLastOperation
 138 0034 2369     		ldr	r3, [r4, #16]
 139 0036 23F02003 		bic	r3, r3, #32
 140 003a 2361     		str	r3, [r4, #16]
 141 003c 0346     		mov	r3, r0
 142 003e 0028     		cmp	r0, #0
 143 0040 E6D1     		bne	.L16
 144 0042 2369     		ldr	r3, [r4, #16]
 145 0044 43F01003 		orr	r3, r3, #16
 146 0048 2361     		str	r3, [r4, #16]
 147 004a ADB2     		uxth	r5, r5
 148 004c 074B     		ldr	r3, .L19+8
 149 004e 1D80     		strh	r5, [r3]	@ movhi
 150 0050 4CF25030 		movw	r0, #50000
 151 0054 FFF7FEFF 		bl	FLASH_WaitForLastOperation
 152 0058 0346     		mov	r3, r0
 153 005a 2269     		ldr	r2, [r4, #16]
 154 005c 22F01002 		bic	r2, r2, #16
 155 0060 2261     		str	r2, [r4, #16]
 156 0062 D5E7     		b	.L16
 157              	.L20:
 158              		.align	2
 159              	.L19:
 160 0064 00000000 		.word	pFlash
 161 0068 00200240 		.word	1073881088
 162 006c 00F8FF1F 		.word	536868864
 164              		.section	.text.FLASH_OB_UserConfig,"ax",%progbits
 165              		.align	1
 166              		.syntax unified
 167              		.thumb
 168              		.thumb_func
 169              		.fpu softvfp
 171              	FLASH_OB_UserConfig:
 172              		@ args = 0, pretend = 0, frame = 0
 173              		@ frame_needed = 0, uses_anonymous_args = 0
 174 0000 38B5     		push	{r3, r4, r5, lr}
 175 0002 0446     		mov	r4, r0
 176 0004 4CF25030 		movw	r0, #50000
 177 0008 FFF7FEFF 		bl	FLASH_WaitForLastOperation
 178 000c 0346     		mov	r3, r0
 179 000e 08B1     		cbz	r0, .L24
 180              	.L22:
 181 0010 1846     		mov	r0, r3
 182 0012 38BD     		pop	{r3, r4, r5, pc}
ARM GAS  /tmp/ccKmR4aC.s 			page 4


 183              	.L24:
 184 0014 0A4B     		ldr	r3, .L25
 185 0016 0022     		movs	r2, #0
 186 0018 DA61     		str	r2, [r3, #28]
 187 001a 0A4D     		ldr	r5, .L25+4
 188 001c 2B69     		ldr	r3, [r5, #16]
 189 001e 43F01003 		orr	r3, r3, #16
 190 0022 2B61     		str	r3, [r5, #16]
 191 0024 44F08804 		orr	r4, r4, #136
 192 0028 074B     		ldr	r3, .L25+8
 193 002a 5C80     		strh	r4, [r3, #2]	@ movhi
 194 002c 4CF25030 		movw	r0, #50000
 195 0030 FFF7FEFF 		bl	FLASH_WaitForLastOperation
 196 0034 0346     		mov	r3, r0
 197 0036 2A69     		ldr	r2, [r5, #16]
 198 0038 22F01002 		bic	r2, r2, #16
 199 003c 2A61     		str	r2, [r5, #16]
 200 003e E7E7     		b	.L22
 201              	.L26:
 202              		.align	2
 203              	.L25:
 204 0040 00000000 		.word	pFlash
 205 0044 00200240 		.word	1073881088
 206 0048 00F8FF1F 		.word	536868864
 208              		.section	.text.FLASH_OB_ProgramData,"ax",%progbits
 209              		.align	1
 210              		.syntax unified
 211              		.thumb
 212              		.thumb_func
 213              		.fpu softvfp
 215              	FLASH_OB_ProgramData:
 216              		@ args = 0, pretend = 0, frame = 0
 217              		@ frame_needed = 0, uses_anonymous_args = 0
 218 0000 70B5     		push	{r4, r5, r6, lr}
 219 0002 0646     		mov	r6, r0
 220 0004 0C46     		mov	r4, r1
 221 0006 4CF25030 		movw	r0, #50000
 222 000a FFF7FEFF 		bl	FLASH_WaitForLastOperation
 223 000e 0346     		mov	r3, r0
 224 0010 08B1     		cbz	r0, .L30
 225              	.L28:
 226 0012 1846     		mov	r0, r3
 227 0014 70BD     		pop	{r4, r5, r6, pc}
 228              	.L30:
 229 0016 0A4B     		ldr	r3, .L31
 230 0018 0022     		movs	r2, #0
 231 001a DA61     		str	r2, [r3, #28]
 232 001c 094D     		ldr	r5, .L31+4
 233 001e 2B69     		ldr	r3, [r5, #16]
 234 0020 43F01003 		orr	r3, r3, #16
 235 0024 2B61     		str	r3, [r5, #16]
 236 0026 A4B2     		uxth	r4, r4
 237 0028 3480     		strh	r4, [r6]	@ movhi
 238 002a 4CF25030 		movw	r0, #50000
 239 002e FFF7FEFF 		bl	FLASH_WaitForLastOperation
 240 0032 0346     		mov	r3, r0
 241 0034 2A69     		ldr	r2, [r5, #16]
ARM GAS  /tmp/ccKmR4aC.s 			page 5


 242 0036 22F01002 		bic	r2, r2, #16
 243 003a 2A61     		str	r2, [r5, #16]
 244 003c E9E7     		b	.L28
 245              	.L32:
 246 003e 00BF     		.align	2
 247              	.L31:
 248 0040 00000000 		.word	pFlash
 249 0044 00200240 		.word	1073881088
 251              		.section	.text.HAL_FLASHEx_OBErase,"ax",%progbits
 252              		.align	1
 253              		.global	HAL_FLASHEx_OBErase
 254              		.syntax unified
 255              		.thumb
 256              		.thumb_func
 257              		.fpu softvfp
 259              	HAL_FLASHEx_OBErase:
 260              		@ args = 0, pretend = 0, frame = 0
 261              		@ frame_needed = 0, uses_anonymous_args = 0
 262 0000 38B5     		push	{r3, r4, r5, lr}
 263 0002 FFF7FEFF 		bl	FLASH_OB_GetRDP
 264 0006 C5B2     		uxtb	r5, r0
 265 0008 4CF25030 		movw	r0, #50000
 266 000c FFF7FEFF 		bl	FLASH_WaitForLastOperation
 267 0010 0346     		mov	r3, r0
 268 0012 08B1     		cbz	r0, .L36
 269              	.L34:
 270 0014 1846     		mov	r0, r3
 271 0016 38BD     		pop	{r3, r4, r5, pc}
 272              	.L36:
 273 0018 0D4B     		ldr	r3, .L37
 274 001a 0022     		movs	r2, #0
 275 001c DA61     		str	r2, [r3, #28]
 276 001e 0D4C     		ldr	r4, .L37+4
 277 0020 2369     		ldr	r3, [r4, #16]
 278 0022 43F02003 		orr	r3, r3, #32
 279 0026 2361     		str	r3, [r4, #16]
 280 0028 2369     		ldr	r3, [r4, #16]
 281 002a 43F04003 		orr	r3, r3, #64
 282 002e 2361     		str	r3, [r4, #16]
 283 0030 4CF25030 		movw	r0, #50000
 284 0034 FFF7FEFF 		bl	FLASH_WaitForLastOperation
 285 0038 2369     		ldr	r3, [r4, #16]
 286 003a 23F02003 		bic	r3, r3, #32
 287 003e 2361     		str	r3, [r4, #16]
 288 0040 0346     		mov	r3, r0
 289 0042 0028     		cmp	r0, #0
 290 0044 E6D1     		bne	.L34
 291 0046 2846     		mov	r0, r5
 292 0048 FFF7FEFF 		bl	FLASH_OB_RDP_LevelConfig
 293 004c 0346     		mov	r3, r0
 294 004e E1E7     		b	.L34
 295              	.L38:
 296              		.align	2
 297              	.L37:
 298 0050 00000000 		.word	pFlash
 299 0054 00200240 		.word	1073881088
 301              		.section	.text.FLASH_OB_EnableWRP,"ax",%progbits
ARM GAS  /tmp/ccKmR4aC.s 			page 6


 302              		.align	1
 303              		.syntax unified
 304              		.thumb
 305              		.thumb_func
 306              		.fpu softvfp
 308              	FLASH_OB_EnableWRP:
 309              		@ args = 0, pretend = 0, frame = 0
 310              		@ frame_needed = 0, uses_anonymous_args = 0
 311 0000 F8B5     		push	{r3, r4, r5, r6, r7, lr}
 312 0002 0446     		mov	r4, r0
 313 0004 FFF7FEFF 		bl	FLASH_OB_GetWRP
 314 0008 20EA0404 		bic	r4, r0, r4
 315 000c C4F30727 		ubfx	r7, r4, #8, #8
 316 0010 C4F30746 		ubfx	r6, r4, #16, #8
 317 0014 4CF25030 		movw	r0, #50000
 318 0018 FFF7FEFF 		bl	FLASH_WaitForLastOperation
 319 001c 0346     		mov	r3, r0
 320 001e 08B1     		cbz	r0, .L46
 321              	.L40:
 322 0020 1846     		mov	r0, r3
 323 0022 F8BD     		pop	{r3, r4, r5, r6, r7, pc}
 324              	.L46:
 325 0024 E5B2     		uxtb	r5, r4
 326 0026 240E     		lsrs	r4, r4, #24
 327 0028 224B     		ldr	r3, .L51
 328 002a 0022     		movs	r2, #0
 329 002c DA61     		str	r2, [r3, #28]
 330 002e FFF7FEFF 		bl	HAL_FLASHEx_OBErase
 331 0032 0346     		mov	r3, r0
 332 0034 0028     		cmp	r0, #0
 333 0036 F3D1     		bne	.L40
 334 0038 1F49     		ldr	r1, .L51+4
 335 003a 0A69     		ldr	r2, [r1, #16]
 336 003c 42F01002 		orr	r2, r2, #16
 337 0040 0A61     		str	r2, [r1, #16]
 338 0042 FF2D     		cmp	r5, #255
 339 0044 0ED1     		bne	.L47
 340              	.L41:
 341 0046 0BB9     		cbnz	r3, .L42
 342 0048 FF2F     		cmp	r7, #255
 343 004a 15D1     		bne	.L48
 344              	.L42:
 345 004c 0BB9     		cbnz	r3, .L43
 346 004e FF2E     		cmp	r6, #255
 347 0050 1CD1     		bne	.L49
 348              	.L43:
 349 0052 0BB9     		cbnz	r3, .L44
 350 0054 FF2C     		cmp	r4, #255
 351 0056 23D1     		bne	.L50
 352              	.L44:
 353 0058 1749     		ldr	r1, .L51+4
 354 005a 0A69     		ldr	r2, [r1, #16]
 355 005c 22F01002 		bic	r2, r2, #16
 356 0060 0A61     		str	r2, [r1, #16]
 357 0062 DDE7     		b	.L40
 358              	.L47:
 359 0064 154B     		ldr	r3, .L51+8
ARM GAS  /tmp/ccKmR4aC.s 			page 7


 360 0066 1A89     		ldrh	r2, [r3, #8]
 361 0068 1540     		ands	r5, r5, r2
 362 006a 1D81     		strh	r5, [r3, #8]	@ movhi
 363 006c 4CF25030 		movw	r0, #50000
 364 0070 FFF7FEFF 		bl	FLASH_WaitForLastOperation
 365 0074 0346     		mov	r3, r0
 366 0076 E6E7     		b	.L41
 367              	.L48:
 368 0078 104B     		ldr	r3, .L51+8
 369 007a 5A89     		ldrh	r2, [r3, #10]
 370 007c 1740     		ands	r7, r7, r2
 371 007e 5F81     		strh	r7, [r3, #10]	@ movhi
 372 0080 4CF25030 		movw	r0, #50000
 373 0084 FFF7FEFF 		bl	FLASH_WaitForLastOperation
 374 0088 0346     		mov	r3, r0
 375 008a DFE7     		b	.L42
 376              	.L49:
 377 008c 0B4B     		ldr	r3, .L51+8
 378 008e 9A89     		ldrh	r2, [r3, #12]
 379 0090 1640     		ands	r6, r6, r2
 380 0092 9E81     		strh	r6, [r3, #12]	@ movhi
 381 0094 4CF25030 		movw	r0, #50000
 382 0098 FFF7FEFF 		bl	FLASH_WaitForLastOperation
 383 009c 0346     		mov	r3, r0
 384 009e D8E7     		b	.L43
 385              	.L50:
 386 00a0 064B     		ldr	r3, .L51+8
 387 00a2 D889     		ldrh	r0, [r3, #14]
 388 00a4 2040     		ands	r0, r0, r4
 389 00a6 D881     		strh	r0, [r3, #14]	@ movhi
 390 00a8 4CF25030 		movw	r0, #50000
 391 00ac FFF7FEFF 		bl	FLASH_WaitForLastOperation
 392 00b0 0346     		mov	r3, r0
 393 00b2 D1E7     		b	.L44
 394              	.L52:
 395              		.align	2
 396              	.L51:
 397 00b4 00000000 		.word	pFlash
 398 00b8 00200240 		.word	1073881088
 399 00bc 00F8FF1F 		.word	536868864
 401              		.section	.text.FLASH_OB_DisableWRP,"ax",%progbits
 402              		.align	1
 403              		.syntax unified
 404              		.thumb
 405              		.thumb_func
 406              		.fpu softvfp
 408              	FLASH_OB_DisableWRP:
 409              		@ args = 0, pretend = 0, frame = 0
 410              		@ frame_needed = 0, uses_anonymous_args = 0
 411 0000 F8B5     		push	{r3, r4, r5, r6, r7, lr}
 412 0002 0446     		mov	r4, r0
 413 0004 FFF7FEFF 		bl	FLASH_OB_GetWRP
 414 0008 0443     		orrs	r4, r4, r0
 415 000a C4F30727 		ubfx	r7, r4, #8, #8
 416 000e C4F30746 		ubfx	r6, r4, #16, #8
 417 0012 4CF25030 		movw	r0, #50000
 418 0016 FFF7FEFF 		bl	FLASH_WaitForLastOperation
ARM GAS  /tmp/ccKmR4aC.s 			page 8


 419 001a 0346     		mov	r3, r0
 420 001c 08B1     		cbz	r0, .L60
 421              	.L54:
 422 001e 1846     		mov	r0, r3
 423 0020 F8BD     		pop	{r3, r4, r5, r6, r7, pc}
 424              	.L60:
 425 0022 E5B2     		uxtb	r5, r4
 426 0024 240E     		lsrs	r4, r4, #24
 427 0026 234B     		ldr	r3, .L65
 428 0028 0022     		movs	r2, #0
 429 002a DA61     		str	r2, [r3, #28]
 430 002c FFF7FEFF 		bl	HAL_FLASHEx_OBErase
 431 0030 0346     		mov	r3, r0
 432 0032 0028     		cmp	r0, #0
 433 0034 F3D1     		bne	.L54
 434 0036 2049     		ldr	r1, .L65+4
 435 0038 0A69     		ldr	r2, [r1, #16]
 436 003a 42F01002 		orr	r2, r2, #16
 437 003e 0A61     		str	r2, [r1, #16]
 438 0040 FF2D     		cmp	r5, #255
 439 0042 0ED1     		bne	.L61
 440              	.L55:
 441 0044 0BB9     		cbnz	r3, .L56
 442 0046 FF2F     		cmp	r7, #255
 443 0048 15D1     		bne	.L62
 444              	.L56:
 445 004a 0BB9     		cbnz	r3, .L57
 446 004c FF2E     		cmp	r6, #255
 447 004e 1CD1     		bne	.L63
 448              	.L57:
 449 0050 0BB9     		cbnz	r3, .L58
 450 0052 FF2C     		cmp	r4, #255
 451 0054 23D1     		bne	.L64
 452              	.L58:
 453 0056 1849     		ldr	r1, .L65+4
 454 0058 0A69     		ldr	r2, [r1, #16]
 455 005a 22F01002 		bic	r2, r2, #16
 456 005e 0A61     		str	r2, [r1, #16]
 457 0060 DDE7     		b	.L54
 458              	.L61:
 459 0062 164B     		ldr	r3, .L65+8
 460 0064 1A89     		ldrh	r2, [r3, #8]
 461 0066 1543     		orrs	r5, r5, r2
 462 0068 1D81     		strh	r5, [r3, #8]	@ movhi
 463 006a 4CF25030 		movw	r0, #50000
 464 006e FFF7FEFF 		bl	FLASH_WaitForLastOperation
 465 0072 0346     		mov	r3, r0
 466 0074 E6E7     		b	.L55
 467              	.L62:
 468 0076 114B     		ldr	r3, .L65+8
 469 0078 5A89     		ldrh	r2, [r3, #10]
 470 007a 1743     		orrs	r7, r7, r2
 471 007c 5F81     		strh	r7, [r3, #10]	@ movhi
 472 007e 4CF25030 		movw	r0, #50000
 473 0082 FFF7FEFF 		bl	FLASH_WaitForLastOperation
 474 0086 0346     		mov	r3, r0
 475 0088 DFE7     		b	.L56
ARM GAS  /tmp/ccKmR4aC.s 			page 9


 476              	.L63:
 477 008a 0C4B     		ldr	r3, .L65+8
 478 008c 9A89     		ldrh	r2, [r3, #12]
 479 008e 1643     		orrs	r6, r6, r2
 480 0090 9E81     		strh	r6, [r3, #12]	@ movhi
 481 0092 4CF25030 		movw	r0, #50000
 482 0096 FFF7FEFF 		bl	FLASH_WaitForLastOperation
 483 009a 0346     		mov	r3, r0
 484 009c D8E7     		b	.L57
 485              	.L64:
 486 009e 074B     		ldr	r3, .L65+8
 487 00a0 D889     		ldrh	r0, [r3, #14]
 488 00a2 2043     		orrs	r0, r0, r4
 489 00a4 D881     		strh	r0, [r3, #14]	@ movhi
 490 00a6 4CF25030 		movw	r0, #50000
 491 00aa FFF7FEFF 		bl	FLASH_WaitForLastOperation
 492 00ae 0346     		mov	r3, r0
 493 00b0 D1E7     		b	.L58
 494              	.L66:
 495 00b2 00BF     		.align	2
 496              	.L65:
 497 00b4 00000000 		.word	pFlash
 498 00b8 00200240 		.word	1073881088
 499 00bc 00F8FF1F 		.word	536868864
 501              		.section	.text.HAL_FLASHEx_OBProgram,"ax",%progbits
 502              		.align	1
 503              		.global	HAL_FLASHEx_OBProgram
 504              		.syntax unified
 505              		.thumb
 506              		.thumb_func
 507              		.fpu softvfp
 509              	HAL_FLASHEx_OBProgram:
 510              		@ args = 0, pretend = 0, frame = 0
 511              		@ frame_needed = 0, uses_anonymous_args = 0
 512 0000 284B     		ldr	r3, .L85
 513 0002 1B7E     		ldrb	r3, [r3, #24]	@ zero_extendqisi2
 514 0004 012B     		cmp	r3, #1
 515 0006 4AD0     		beq	.L75
 516 0008 10B5     		push	{r4, lr}
 517 000a 0446     		mov	r4, r0
 518 000c 254B     		ldr	r3, .L85
 519 000e 0122     		movs	r2, #1
 520 0010 1A76     		strb	r2, [r3, #24]
 521 0012 0368     		ldr	r3, [r0]
 522 0014 13F0010F 		tst	r3, #1
 523 0018 10D0     		beq	.L76
 524 001a 4368     		ldr	r3, [r0, #4]
 525 001c 9342     		cmp	r3, r2
 526 001e 08D0     		beq	.L81
 527 0020 8068     		ldr	r0, [r0, #8]
 528 0022 FFF7FEFF 		bl	FLASH_OB_DisableWRP
 529 0026 0346     		mov	r3, r0
 530              	.L71:
 531 0028 4BB1     		cbz	r3, .L69
 532 002a 1E4A     		ldr	r2, .L85
 533 002c 0021     		movs	r1, #0
 534 002e 1176     		strb	r1, [r2, #24]
ARM GAS  /tmp/ccKmR4aC.s 			page 10


 535 0030 14E0     		b	.L68
 536              	.L81:
 537 0032 8068     		ldr	r0, [r0, #8]
 538 0034 FFF7FEFF 		bl	FLASH_OB_EnableWRP
 539 0038 0346     		mov	r3, r0
 540 003a F5E7     		b	.L71
 541              	.L76:
 542 003c 0123     		movs	r3, #1
 543              	.L69:
 544 003e 2268     		ldr	r2, [r4]
 545 0040 12F0020F 		tst	r2, #2
 546 0044 0CD1     		bne	.L82
 547              	.L72:
 548 0046 2268     		ldr	r2, [r4]
 549 0048 12F0040F 		tst	r2, #4
 550 004c 12D1     		bne	.L83
 551              	.L73:
 552 004e 2268     		ldr	r2, [r4]
 553 0050 12F0080F 		tst	r2, #8
 554 0054 18D1     		bne	.L84
 555              	.L74:
 556 0056 134A     		ldr	r2, .L85
 557 0058 0021     		movs	r1, #0
 558 005a 1176     		strb	r1, [r2, #24]
 559              	.L68:
 560 005c 1846     		mov	r0, r3
 561 005e 10BD     		pop	{r4, pc}
 562              	.L82:
 563 0060 207C     		ldrb	r0, [r4, #16]	@ zero_extendqisi2
 564 0062 FFF7FEFF 		bl	FLASH_OB_RDP_LevelConfig
 565 0066 0346     		mov	r3, r0
 566 0068 0028     		cmp	r0, #0
 567 006a ECD0     		beq	.L72
 568 006c 0D4A     		ldr	r2, .L85
 569 006e 0021     		movs	r1, #0
 570 0070 1176     		strb	r1, [r2, #24]
 571 0072 F3E7     		b	.L68
 572              	.L83:
 573 0074 607C     		ldrb	r0, [r4, #17]	@ zero_extendqisi2
 574 0076 FFF7FEFF 		bl	FLASH_OB_UserConfig
 575 007a 0346     		mov	r3, r0
 576 007c 0028     		cmp	r0, #0
 577 007e E6D0     		beq	.L73
 578 0080 084A     		ldr	r2, .L85
 579 0082 0021     		movs	r1, #0
 580 0084 1176     		strb	r1, [r2, #24]
 581 0086 E9E7     		b	.L68
 582              	.L84:
 583 0088 217E     		ldrb	r1, [r4, #24]	@ zero_extendqisi2
 584 008a 6069     		ldr	r0, [r4, #20]
 585 008c FFF7FEFF 		bl	FLASH_OB_ProgramData
 586 0090 0346     		mov	r3, r0
 587 0092 0028     		cmp	r0, #0
 588 0094 DFD0     		beq	.L74
 589 0096 034A     		ldr	r2, .L85
 590 0098 0021     		movs	r1, #0
 591 009a 1176     		strb	r1, [r2, #24]
ARM GAS  /tmp/ccKmR4aC.s 			page 11


 592 009c DEE7     		b	.L68
 593              	.L75:
 594 009e 0223     		movs	r3, #2
 595 00a0 1846     		mov	r0, r3
 596 00a2 7047     		bx	lr
 597              	.L86:
 598              		.align	2
 599              	.L85:
 600 00a4 00000000 		.word	pFlash
 602              		.section	.text.HAL_FLASHEx_OBGetConfig,"ax",%progbits
 603              		.align	1
 604              		.global	HAL_FLASHEx_OBGetConfig
 605              		.syntax unified
 606              		.thumb
 607              		.thumb_func
 608              		.fpu softvfp
 610              	HAL_FLASHEx_OBGetConfig:
 611              		@ args = 0, pretend = 0, frame = 0
 612              		@ frame_needed = 0, uses_anonymous_args = 0
 613 0000 10B5     		push	{r4, lr}
 614 0002 0446     		mov	r4, r0
 615 0004 0723     		movs	r3, #7
 616 0006 0360     		str	r3, [r0]
 617 0008 FFF7FEFF 		bl	FLASH_OB_GetWRP
 618 000c A060     		str	r0, [r4, #8]
 619 000e FFF7FEFF 		bl	FLASH_OB_GetRDP
 620 0012 2074     		strb	r0, [r4, #16]
 621 0014 FFF7FEFF 		bl	FLASH_OB_GetUser
 622 0018 6074     		strb	r0, [r4, #17]
 623 001a 10BD     		pop	{r4, pc}
 625              		.section	.text.HAL_FLASHEx_OBGetUserData,"ax",%progbits
 626              		.align	1
 627              		.global	HAL_FLASHEx_OBGetUserData
 628              		.syntax unified
 629              		.thumb
 630              		.thumb_func
 631              		.fpu softvfp
 633              	HAL_FLASHEx_OBGetUserData:
 634              		@ args = 0, pretend = 0, frame = 0
 635              		@ frame_needed = 0, uses_anonymous_args = 0
 636              		@ link register save eliminated.
 637 0000 064B     		ldr	r3, .L93
 638 0002 9842     		cmp	r0, r3
 639 0004 04D0     		beq	.L92
 640 0006 064B     		ldr	r3, .L93+4
 641 0008 D869     		ldr	r0, [r3, #28]
 642 000a C0F38740 		ubfx	r0, r0, #18, #8
 643 000e 7047     		bx	lr
 644              	.L92:
 645 0010 034B     		ldr	r3, .L93+4
 646 0012 D869     		ldr	r0, [r3, #28]
 647 0014 C0F38720 		ubfx	r0, r0, #10, #8
 648 0018 7047     		bx	lr
 649              	.L94:
 650 001a 00BF     		.align	2
 651              	.L93:
 652 001c 04F8FF1F 		.word	536868868
ARM GAS  /tmp/ccKmR4aC.s 			page 12


 653 0020 00200240 		.word	1073881088
 655              		.section	.text.FLASH_PageErase,"ax",%progbits
 656              		.align	1
 657              		.global	FLASH_PageErase
 658              		.syntax unified
 659              		.thumb
 660              		.thumb_func
 661              		.fpu softvfp
 663              	FLASH_PageErase:
 664              		@ args = 0, pretend = 0, frame = 0
 665              		@ frame_needed = 0, uses_anonymous_args = 0
 666              		@ link register save eliminated.
 667 0000 064B     		ldr	r3, .L96
 668 0002 0022     		movs	r2, #0
 669 0004 DA61     		str	r2, [r3, #28]
 670 0006 064B     		ldr	r3, .L96+4
 671 0008 1A69     		ldr	r2, [r3, #16]
 672 000a 42F00202 		orr	r2, r2, #2
 673 000e 1A61     		str	r2, [r3, #16]
 674 0010 5861     		str	r0, [r3, #20]
 675 0012 1A69     		ldr	r2, [r3, #16]
 676 0014 42F04002 		orr	r2, r2, #64
 677 0018 1A61     		str	r2, [r3, #16]
 678 001a 7047     		bx	lr
 679              	.L97:
 680              		.align	2
 681              	.L96:
 682 001c 00000000 		.word	pFlash
 683 0020 00200240 		.word	1073881088
 685              		.section	.text.HAL_FLASHEx_Erase,"ax",%progbits
 686              		.align	1
 687              		.global	HAL_FLASHEx_Erase
 688              		.syntax unified
 689              		.thumb
 690              		.thumb_func
 691              		.fpu softvfp
 693              	HAL_FLASHEx_Erase:
 694              		@ args = 0, pretend = 0, frame = 0
 695              		@ frame_needed = 0, uses_anonymous_args = 0
 696 0000 264B     		ldr	r3, .L115
 697 0002 1B7E     		ldrb	r3, [r3, #24]	@ zero_extendqisi2
 698 0004 012B     		cmp	r3, #1
 699 0006 46D0     		beq	.L105
 700 0008 70B5     		push	{r4, r5, r6, lr}
 701 000a 0E46     		mov	r6, r1
 702 000c 0546     		mov	r5, r0
 703 000e 234B     		ldr	r3, .L115
 704 0010 0122     		movs	r2, #1
 705 0012 1A76     		strb	r2, [r3, #24]
 706 0014 0368     		ldr	r3, [r0]
 707 0016 022B     		cmp	r3, #2
 708 0018 20D0     		beq	.L112
 709 001a 4CF25030 		movw	r0, #50000
 710 001e FFF7FEFF 		bl	FLASH_WaitForLastOperation
 711 0022 90BB     		cbnz	r0, .L107
 712 0024 4FF0FF33 		mov	r3, #-1
 713 0028 3360     		str	r3, [r6]
ARM GAS  /tmp/ccKmR4aC.s 			page 13


 714 002a AC68     		ldr	r4, [r5, #8]
 715 002c 0121     		movs	r1, #1
 716              	.L102:
 717 002e EA68     		ldr	r2, [r5, #12]
 718 0030 AB68     		ldr	r3, [r5, #8]
 719 0032 03EB8223 		add	r3, r3, r2, lsl #10
 720 0036 A342     		cmp	r3, r4
 721 0038 28D9     		bls	.L101
 722 003a 2046     		mov	r0, r4
 723 003c FFF7FEFF 		bl	FLASH_PageErase
 724 0040 4CF25030 		movw	r0, #50000
 725 0044 FFF7FEFF 		bl	FLASH_WaitForLastOperation
 726 0048 154A     		ldr	r2, .L115+4
 727 004a 1369     		ldr	r3, [r2, #16]
 728 004c 23F00203 		bic	r3, r3, #2
 729 0050 1361     		str	r3, [r2, #16]
 730 0052 0146     		mov	r1, r0
 731 0054 B8B9     		cbnz	r0, .L113
 732 0056 04F58064 		add	r4, r4, #1024
 733 005a E8E7     		b	.L102
 734              	.L112:
 735 005c 4CF25030 		movw	r0, #50000
 736 0060 FFF7FEFF 		bl	FLASH_WaitForLastOperation
 737 0064 08B1     		cbz	r0, .L114
 738 0066 0121     		movs	r1, #1
 739 0068 10E0     		b	.L101
 740              	.L114:
 741 006a 0120     		movs	r0, #1
 742 006c FFF7FEFF 		bl	FLASH_MassErase
 743 0070 4CF25030 		movw	r0, #50000
 744 0074 FFF7FEFF 		bl	FLASH_WaitForLastOperation
 745 0078 0146     		mov	r1, r0
 746 007a 094A     		ldr	r2, .L115+4
 747 007c 1369     		ldr	r3, [r2, #16]
 748 007e 23F00403 		bic	r3, r3, #4
 749 0082 1361     		str	r3, [r2, #16]
 750 0084 02E0     		b	.L101
 751              	.L113:
 752 0086 3460     		str	r4, [r6]
 753 0088 00E0     		b	.L101
 754              	.L107:
 755 008a 0121     		movs	r1, #1
 756              	.L101:
 757 008c 034B     		ldr	r3, .L115
 758 008e 0022     		movs	r2, #0
 759 0090 1A76     		strb	r2, [r3, #24]
 760 0092 0846     		mov	r0, r1
 761 0094 70BD     		pop	{r4, r5, r6, pc}
 762              	.L105:
 763 0096 0221     		movs	r1, #2
 764 0098 0846     		mov	r0, r1
 765 009a 7047     		bx	lr
 766              	.L116:
 767              		.align	2
 768              	.L115:
 769 009c 00000000 		.word	pFlash
 770 00a0 00200240 		.word	1073881088
ARM GAS  /tmp/ccKmR4aC.s 			page 14


 772              		.section	.text.HAL_FLASHEx_Erase_IT,"ax",%progbits
 773              		.align	1
 774              		.global	HAL_FLASHEx_Erase_IT
 775              		.syntax unified
 776              		.thumb
 777              		.thumb_func
 778              		.fpu softvfp
 780              	HAL_FLASHEx_Erase_IT:
 781              		@ args = 0, pretend = 0, frame = 0
 782              		@ frame_needed = 0, uses_anonymous_args = 0
 783 0000 08B5     		push	{r3, lr}
 784 0002 144B     		ldr	r3, .L124
 785 0004 1B7E     		ldrb	r3, [r3, #24]	@ zero_extendqisi2
 786 0006 012B     		cmp	r3, #1
 787 0008 20D0     		beq	.L120
 788 000a 124B     		ldr	r3, .L124
 789 000c 0122     		movs	r2, #1
 790 000e 1A76     		strb	r2, [r3, #24]
 791 0010 1B78     		ldrb	r3, [r3]	@ zero_extendqisi2
 792 0012 EBB9     		cbnz	r3, .L121
 793 0014 104A     		ldr	r2, .L124+4
 794 0016 1369     		ldr	r3, [r2, #16]
 795 0018 43F4A053 		orr	r3, r3, #5120
 796 001c 1361     		str	r3, [r2, #16]
 797 001e 0368     		ldr	r3, [r0]
 798 0020 022B     		cmp	r3, #2
 799 0022 0BD0     		beq	.L123
 800 0024 0B4B     		ldr	r3, .L124
 801 0026 0122     		movs	r2, #1
 802 0028 1A70     		strb	r2, [r3]
 803 002a C268     		ldr	r2, [r0, #12]
 804 002c 5A60     		str	r2, [r3, #4]
 805 002e 8268     		ldr	r2, [r0, #8]
 806 0030 9A60     		str	r2, [r3, #8]
 807 0032 8068     		ldr	r0, [r0, #8]
 808 0034 FFF7FEFF 		bl	FLASH_PageErase
 809 0038 0020     		movs	r0, #0
 810              	.L118:
 811 003a 08BD     		pop	{r3, pc}
 812              	.L123:
 813 003c 054B     		ldr	r3, .L124
 814 003e 0222     		movs	r2, #2
 815 0040 1A70     		strb	r2, [r3]
 816 0042 4068     		ldr	r0, [r0, #4]
 817 0044 FFF7FEFF 		bl	FLASH_MassErase
 818 0048 0020     		movs	r0, #0
 819 004a F6E7     		b	.L118
 820              	.L120:
 821 004c 0220     		movs	r0, #2
 822 004e F4E7     		b	.L118
 823              	.L121:
 824 0050 0120     		movs	r0, #1
 825 0052 F2E7     		b	.L118
 826              	.L125:
 827              		.align	2
 828              	.L124:
 829 0054 00000000 		.word	pFlash
ARM GAS  /tmp/ccKmR4aC.s 			page 15


 830 0058 00200240 		.word	1073881088
 832              		.ident	"GCC: (GNU Tools for Arm Embedded Processors 8-2018-q4-major) 8.2.1 20181213 (release) [gcc
ARM GAS  /tmp/ccKmR4aC.s 			page 16

