ARM GAS  /tmp/ccC4ZKun.s 			page 1


   1              		.cpu cortex-m3
   2              		.eabi_attribute 20, 1
   3              		.eabi_attribute 21, 1
   4              		.eabi_attribute 23, 3
   5              		.eabi_attribute 24, 1
   6              		.eabi_attribute 25, 1
   7              		.eabi_attribute 26, 1
   8              		.eabi_attribute 30, 1
   9              		.eabi_attribute 34, 1
  10              		.eabi_attribute 18, 4
  11              		.file	"stm32f1xx_hal.c"
  12              		.text
  13              		.section	.text.HAL_MspInit,"ax",%progbits
  14              		.align	1
  15              		.weak	HAL_MspInit
  16              		.arch armv7-m
  17              		.syntax unified
  18              		.thumb
  19              		.thumb_func
  20              		.fpu softvfp
  22              	HAL_MspInit:
  23              		@ args = 0, pretend = 0, frame = 0
  24              		@ frame_needed = 0, uses_anonymous_args = 0
  25              		@ link register save eliminated.
  26 0000 7047     		bx	lr
  28              		.section	.text.HAL_MspDeInit,"ax",%progbits
  29              		.align	1
  30              		.weak	HAL_MspDeInit
  31              		.syntax unified
  32              		.thumb
  33              		.thumb_func
  34              		.fpu softvfp
  36              	HAL_MspDeInit:
  37              		@ args = 0, pretend = 0, frame = 0
  38              		@ frame_needed = 0, uses_anonymous_args = 0
  39              		@ link register save eliminated.
  40 0000 7047     		bx	lr
  42              		.section	.text.HAL_DeInit,"ax",%progbits
  43              		.align	1
  44              		.global	HAL_DeInit
  45              		.syntax unified
  46              		.thumb
  47              		.thumb_func
  48              		.fpu softvfp
  50              	HAL_DeInit:
  51              		@ args = 0, pretend = 0, frame = 0
  52              		@ frame_needed = 0, uses_anonymous_args = 0
  53 0000 10B5     		push	{r4, lr}
  54 0002 064B     		ldr	r3, .L5
  55 0004 4FF0FF32 		mov	r2, #-1
  56 0008 DA60     		str	r2, [r3, #12]
  57 000a 0024     		movs	r4, #0
  58 000c 1C61     		str	r4, [r3, #16]
  59 000e DA60     		str	r2, [r3, #12]
  60 0010 DC60     		str	r4, [r3, #12]
  61 0012 FFF7FEFF 		bl	HAL_MspDeInit
  62 0016 2046     		mov	r0, r4
ARM GAS  /tmp/ccC4ZKun.s 			page 2


  63 0018 10BD     		pop	{r4, pc}
  64              	.L6:
  65 001a 00BF     		.align	2
  66              	.L5:
  67 001c 00100240 		.word	1073876992
  69              		.section	.text.HAL_InitTick,"ax",%progbits
  70              		.align	1
  71              		.weak	HAL_InitTick
  72              		.syntax unified
  73              		.thumb
  74              		.thumb_func
  75              		.fpu softvfp
  77              	HAL_InitTick:
  78              		@ args = 0, pretend = 0, frame = 0
  79              		@ frame_needed = 0, uses_anonymous_args = 0
  80 0000 10B5     		push	{r4, lr}
  81 0002 0446     		mov	r4, r0
  82 0004 0E4B     		ldr	r3, .L13
  83 0006 1878     		ldrb	r0, [r3]	@ zero_extendqisi2
  84 0008 4FF47A73 		mov	r3, #1000
  85 000c B3FBF0F3 		udiv	r3, r3, r0
  86 0010 0C4A     		ldr	r2, .L13+4
  87 0012 1068     		ldr	r0, [r2]
  88 0014 B0FBF3F0 		udiv	r0, r0, r3
  89 0018 FFF7FEFF 		bl	HAL_SYSTICK_Config
  90 001c 68B9     		cbnz	r0, .L9
  91 001e 0F2C     		cmp	r4, #15
  92 0020 01D9     		bls	.L12
  93 0022 0120     		movs	r0, #1
  94 0024 0AE0     		b	.L8
  95              	.L12:
  96 0026 0022     		movs	r2, #0
  97 0028 2146     		mov	r1, r4
  98 002a 4FF0FF30 		mov	r0, #-1
  99 002e FFF7FEFF 		bl	HAL_NVIC_SetPriority
 100 0032 054B     		ldr	r3, .L13+8
 101 0034 1C60     		str	r4, [r3]
 102 0036 0020     		movs	r0, #0
 103 0038 00E0     		b	.L8
 104              	.L9:
 105 003a 0120     		movs	r0, #1
 106              	.L8:
 107 003c 10BD     		pop	{r4, pc}
 108              	.L14:
 109 003e 00BF     		.align	2
 110              	.L13:
 111 0040 00000000 		.word	.LANCHOR0
 112 0044 00000000 		.word	SystemCoreClock
 113 0048 00000000 		.word	.LANCHOR1
 115              		.section	.text.HAL_Init,"ax",%progbits
 116              		.align	1
 117              		.global	HAL_Init
 118              		.syntax unified
 119              		.thumb
 120              		.thumb_func
 121              		.fpu softvfp
 123              	HAL_Init:
ARM GAS  /tmp/ccC4ZKun.s 			page 3


 124              		@ args = 0, pretend = 0, frame = 0
 125              		@ frame_needed = 0, uses_anonymous_args = 0
 126 0000 08B5     		push	{r3, lr}
 127 0002 074A     		ldr	r2, .L17
 128 0004 1368     		ldr	r3, [r2]
 129 0006 43F01003 		orr	r3, r3, #16
 130 000a 1360     		str	r3, [r2]
 131 000c 0320     		movs	r0, #3
 132 000e FFF7FEFF 		bl	HAL_NVIC_SetPriorityGrouping
 133 0012 0020     		movs	r0, #0
 134 0014 FFF7FEFF 		bl	HAL_InitTick
 135 0018 FFF7FEFF 		bl	HAL_MspInit
 136 001c 0020     		movs	r0, #0
 137 001e 08BD     		pop	{r3, pc}
 138              	.L18:
 139              		.align	2
 140              	.L17:
 141 0020 00200240 		.word	1073881088
 143              		.section	.text.HAL_IncTick,"ax",%progbits
 144              		.align	1
 145              		.weak	HAL_IncTick
 146              		.syntax unified
 147              		.thumb
 148              		.thumb_func
 149              		.fpu softvfp
 151              	HAL_IncTick:
 152              		@ args = 0, pretend = 0, frame = 0
 153              		@ frame_needed = 0, uses_anonymous_args = 0
 154              		@ link register save eliminated.
 155 0000 034A     		ldr	r2, .L20
 156 0002 1168     		ldr	r1, [r2]
 157 0004 034B     		ldr	r3, .L20+4
 158 0006 1B78     		ldrb	r3, [r3]	@ zero_extendqisi2
 159 0008 0B44     		add	r3, r3, r1
 160 000a 1360     		str	r3, [r2]
 161 000c 7047     		bx	lr
 162              	.L21:
 163 000e 00BF     		.align	2
 164              	.L20:
 165 0010 00000000 		.word	uwTick
 166 0014 00000000 		.word	.LANCHOR0
 168              		.section	.text.HAL_GetTick,"ax",%progbits
 169              		.align	1
 170              		.weak	HAL_GetTick
 171              		.syntax unified
 172              		.thumb
 173              		.thumb_func
 174              		.fpu softvfp
 176              	HAL_GetTick:
 177              		@ args = 0, pretend = 0, frame = 0
 178              		@ frame_needed = 0, uses_anonymous_args = 0
 179              		@ link register save eliminated.
 180 0000 014B     		ldr	r3, .L23
 181 0002 1868     		ldr	r0, [r3]
 182 0004 7047     		bx	lr
 183              	.L24:
 184 0006 00BF     		.align	2
ARM GAS  /tmp/ccC4ZKun.s 			page 4


 185              	.L23:
 186 0008 00000000 		.word	uwTick
 188              		.section	.text.HAL_GetTickPrio,"ax",%progbits
 189              		.align	1
 190              		.global	HAL_GetTickPrio
 191              		.syntax unified
 192              		.thumb
 193              		.thumb_func
 194              		.fpu softvfp
 196              	HAL_GetTickPrio:
 197              		@ args = 0, pretend = 0, frame = 0
 198              		@ frame_needed = 0, uses_anonymous_args = 0
 199              		@ link register save eliminated.
 200 0000 014B     		ldr	r3, .L26
 201 0002 1868     		ldr	r0, [r3]
 202 0004 7047     		bx	lr
 203              	.L27:
 204 0006 00BF     		.align	2
 205              	.L26:
 206 0008 00000000 		.word	.LANCHOR1
 208              		.section	.text.HAL_SetTickFreq,"ax",%progbits
 209              		.align	1
 210              		.global	HAL_SetTickFreq
 211              		.syntax unified
 212              		.thumb
 213              		.thumb_func
 214              		.fpu softvfp
 216              	HAL_SetTickFreq:
 217              		@ args = 0, pretend = 0, frame = 0
 218              		@ frame_needed = 0, uses_anonymous_args = 0
 219 0000 08B5     		push	{r3, lr}
 220 0002 064B     		ldr	r3, .L33
 221 0004 1B78     		ldrb	r3, [r3]	@ zero_extendqisi2
 222 0006 8342     		cmp	r3, r0
 223 0008 01D1     		bne	.L32
 224 000a 0020     		movs	r0, #0
 225              	.L29:
 226 000c 08BD     		pop	{r3, pc}
 227              	.L32:
 228 000e 034B     		ldr	r3, .L33
 229 0010 1870     		strb	r0, [r3]
 230 0012 034B     		ldr	r3, .L33+4
 231 0014 1868     		ldr	r0, [r3]
 232 0016 FFF7FEFF 		bl	HAL_InitTick
 233 001a F7E7     		b	.L29
 234              	.L34:
 235              		.align	2
 236              	.L33:
 237 001c 00000000 		.word	.LANCHOR0
 238 0020 00000000 		.word	.LANCHOR1
 240              		.section	.text.HAL_GetTickFreq,"ax",%progbits
 241              		.align	1
 242              		.global	HAL_GetTickFreq
 243              		.syntax unified
 244              		.thumb
 245              		.thumb_func
 246              		.fpu softvfp
ARM GAS  /tmp/ccC4ZKun.s 			page 5


 248              	HAL_GetTickFreq:
 249              		@ args = 0, pretend = 0, frame = 0
 250              		@ frame_needed = 0, uses_anonymous_args = 0
 251              		@ link register save eliminated.
 252 0000 014B     		ldr	r3, .L36
 253 0002 1878     		ldrb	r0, [r3]	@ zero_extendqisi2
 254 0004 7047     		bx	lr
 255              	.L37:
 256 0006 00BF     		.align	2
 257              	.L36:
 258 0008 00000000 		.word	.LANCHOR0
 260              		.section	.text.HAL_Delay,"ax",%progbits
 261              		.align	1
 262              		.weak	HAL_Delay
 263              		.syntax unified
 264              		.thumb
 265              		.thumb_func
 266              		.fpu softvfp
 268              	HAL_Delay:
 269              		@ args = 0, pretend = 0, frame = 0
 270              		@ frame_needed = 0, uses_anonymous_args = 0
 271 0000 38B5     		push	{r3, r4, r5, lr}
 272 0002 0446     		mov	r4, r0
 273 0004 FFF7FEFF 		bl	HAL_GetTick
 274 0008 0546     		mov	r5, r0
 275 000a B4F1FF3F 		cmp	r4, #-1
 276 000e 02D0     		beq	.L40
 277 0010 044B     		ldr	r3, .L42
 278 0012 1B78     		ldrb	r3, [r3]	@ zero_extendqisi2
 279 0014 1C44     		add	r4, r4, r3
 280              	.L40:
 281 0016 FFF7FEFF 		bl	HAL_GetTick
 282 001a 401B     		subs	r0, r0, r5
 283 001c A042     		cmp	r0, r4
 284 001e FAD3     		bcc	.L40
 285 0020 38BD     		pop	{r3, r4, r5, pc}
 286              	.L43:
 287 0022 00BF     		.align	2
 288              	.L42:
 289 0024 00000000 		.word	.LANCHOR0
 291              		.section	.text.HAL_SuspendTick,"ax",%progbits
 292              		.align	1
 293              		.weak	HAL_SuspendTick
 294              		.syntax unified
 295              		.thumb
 296              		.thumb_func
 297              		.fpu softvfp
 299              	HAL_SuspendTick:
 300              		@ args = 0, pretend = 0, frame = 0
 301              		@ frame_needed = 0, uses_anonymous_args = 0
 302              		@ link register save eliminated.
 303 0000 024A     		ldr	r2, .L45
 304 0002 1368     		ldr	r3, [r2]
 305 0004 23F00203 		bic	r3, r3, #2
 306 0008 1360     		str	r3, [r2]
 307 000a 7047     		bx	lr
 308              	.L46:
ARM GAS  /tmp/ccC4ZKun.s 			page 6


 309              		.align	2
 310              	.L45:
 311 000c 10E000E0 		.word	-536813552
 313              		.section	.text.HAL_ResumeTick,"ax",%progbits
 314              		.align	1
 315              		.weak	HAL_ResumeTick
 316              		.syntax unified
 317              		.thumb
 318              		.thumb_func
 319              		.fpu softvfp
 321              	HAL_ResumeTick:
 322              		@ args = 0, pretend = 0, frame = 0
 323              		@ frame_needed = 0, uses_anonymous_args = 0
 324              		@ link register save eliminated.
 325 0000 024A     		ldr	r2, .L48
 326 0002 1368     		ldr	r3, [r2]
 327 0004 43F00203 		orr	r3, r3, #2
 328 0008 1360     		str	r3, [r2]
 329 000a 7047     		bx	lr
 330              	.L49:
 331              		.align	2
 332              	.L48:
 333 000c 10E000E0 		.word	-536813552
 335              		.section	.text.HAL_GetHalVersion,"ax",%progbits
 336              		.align	1
 337              		.global	HAL_GetHalVersion
 338              		.syntax unified
 339              		.thumb
 340              		.thumb_func
 341              		.fpu softvfp
 343              	HAL_GetHalVersion:
 344              		@ args = 0, pretend = 0, frame = 0
 345              		@ frame_needed = 0, uses_anonymous_args = 0
 346              		@ link register save eliminated.
 347 0000 0048     		ldr	r0, .L51
 348 0002 7047     		bx	lr
 349              	.L52:
 350              		.align	2
 351              	.L51:
 352 0004 00030101 		.word	16843520
 354              		.section	.text.HAL_GetREVID,"ax",%progbits
 355              		.align	1
 356              		.global	HAL_GetREVID
 357              		.syntax unified
 358              		.thumb
 359              		.thumb_func
 360              		.fpu softvfp
 362              	HAL_GetREVID:
 363              		@ args = 0, pretend = 0, frame = 0
 364              		@ frame_needed = 0, uses_anonymous_args = 0
 365              		@ link register save eliminated.
 366 0000 014B     		ldr	r3, .L54
 367 0002 1868     		ldr	r0, [r3]
 368 0004 000C     		lsrs	r0, r0, #16
 369 0006 7047     		bx	lr
 370              	.L55:
 371              		.align	2
ARM GAS  /tmp/ccC4ZKun.s 			page 7


 372              	.L54:
 373 0008 002004E0 		.word	-536600576
 375              		.section	.text.HAL_GetDEVID,"ax",%progbits
 376              		.align	1
 377              		.global	HAL_GetDEVID
 378              		.syntax unified
 379              		.thumb
 380              		.thumb_func
 381              		.fpu softvfp
 383              	HAL_GetDEVID:
 384              		@ args = 0, pretend = 0, frame = 0
 385              		@ frame_needed = 0, uses_anonymous_args = 0
 386              		@ link register save eliminated.
 387 0000 024B     		ldr	r3, .L57
 388 0002 1868     		ldr	r0, [r3]
 389 0004 C0F30B00 		ubfx	r0, r0, #0, #12
 390 0008 7047     		bx	lr
 391              	.L58:
 392 000a 00BF     		.align	2
 393              	.L57:
 394 000c 002004E0 		.word	-536600576
 396              		.section	.text.HAL_DBGMCU_EnableDBGSleepMode,"ax",%progbits
 397              		.align	1
 398              		.global	HAL_DBGMCU_EnableDBGSleepMode
 399              		.syntax unified
 400              		.thumb
 401              		.thumb_func
 402              		.fpu softvfp
 404              	HAL_DBGMCU_EnableDBGSleepMode:
 405              		@ args = 0, pretend = 0, frame = 0
 406              		@ frame_needed = 0, uses_anonymous_args = 0
 407              		@ link register save eliminated.
 408 0000 024A     		ldr	r2, .L60
 409 0002 5368     		ldr	r3, [r2, #4]
 410 0004 43F00103 		orr	r3, r3, #1
 411 0008 5360     		str	r3, [r2, #4]
 412 000a 7047     		bx	lr
 413              	.L61:
 414              		.align	2
 415              	.L60:
 416 000c 002004E0 		.word	-536600576
 418              		.section	.text.HAL_DBGMCU_DisableDBGSleepMode,"ax",%progbits
 419              		.align	1
 420              		.global	HAL_DBGMCU_DisableDBGSleepMode
 421              		.syntax unified
 422              		.thumb
 423              		.thumb_func
 424              		.fpu softvfp
 426              	HAL_DBGMCU_DisableDBGSleepMode:
 427              		@ args = 0, pretend = 0, frame = 0
 428              		@ frame_needed = 0, uses_anonymous_args = 0
 429              		@ link register save eliminated.
 430 0000 024A     		ldr	r2, .L63
 431 0002 5368     		ldr	r3, [r2, #4]
 432 0004 23F00103 		bic	r3, r3, #1
 433 0008 5360     		str	r3, [r2, #4]
 434 000a 7047     		bx	lr
ARM GAS  /tmp/ccC4ZKun.s 			page 8


 435              	.L64:
 436              		.align	2
 437              	.L63:
 438 000c 002004E0 		.word	-536600576
 440              		.section	.text.HAL_DBGMCU_EnableDBGStopMode,"ax",%progbits
 441              		.align	1
 442              		.global	HAL_DBGMCU_EnableDBGStopMode
 443              		.syntax unified
 444              		.thumb
 445              		.thumb_func
 446              		.fpu softvfp
 448              	HAL_DBGMCU_EnableDBGStopMode:
 449              		@ args = 0, pretend = 0, frame = 0
 450              		@ frame_needed = 0, uses_anonymous_args = 0
 451              		@ link register save eliminated.
 452 0000 024A     		ldr	r2, .L66
 453 0002 5368     		ldr	r3, [r2, #4]
 454 0004 43F00203 		orr	r3, r3, #2
 455 0008 5360     		str	r3, [r2, #4]
 456 000a 7047     		bx	lr
 457              	.L67:
 458              		.align	2
 459              	.L66:
 460 000c 002004E0 		.word	-536600576
 462              		.section	.text.HAL_DBGMCU_DisableDBGStopMode,"ax",%progbits
 463              		.align	1
 464              		.global	HAL_DBGMCU_DisableDBGStopMode
 465              		.syntax unified
 466              		.thumb
 467              		.thumb_func
 468              		.fpu softvfp
 470              	HAL_DBGMCU_DisableDBGStopMode:
 471              		@ args = 0, pretend = 0, frame = 0
 472              		@ frame_needed = 0, uses_anonymous_args = 0
 473              		@ link register save eliminated.
 474 0000 024A     		ldr	r2, .L69
 475 0002 5368     		ldr	r3, [r2, #4]
 476 0004 23F00203 		bic	r3, r3, #2
 477 0008 5360     		str	r3, [r2, #4]
 478 000a 7047     		bx	lr
 479              	.L70:
 480              		.align	2
 481              	.L69:
 482 000c 002004E0 		.word	-536600576
 484              		.section	.text.HAL_DBGMCU_EnableDBGStandbyMode,"ax",%progbits
 485              		.align	1
 486              		.global	HAL_DBGMCU_EnableDBGStandbyMode
 487              		.syntax unified
 488              		.thumb
 489              		.thumb_func
 490              		.fpu softvfp
 492              	HAL_DBGMCU_EnableDBGStandbyMode:
 493              		@ args = 0, pretend = 0, frame = 0
 494              		@ frame_needed = 0, uses_anonymous_args = 0
 495              		@ link register save eliminated.
 496 0000 024A     		ldr	r2, .L72
 497 0002 5368     		ldr	r3, [r2, #4]
ARM GAS  /tmp/ccC4ZKun.s 			page 9


 498 0004 43F00403 		orr	r3, r3, #4
 499 0008 5360     		str	r3, [r2, #4]
 500 000a 7047     		bx	lr
 501              	.L73:
 502              		.align	2
 503              	.L72:
 504 000c 002004E0 		.word	-536600576
 506              		.section	.text.HAL_DBGMCU_DisableDBGStandbyMode,"ax",%progbits
 507              		.align	1
 508              		.global	HAL_DBGMCU_DisableDBGStandbyMode
 509              		.syntax unified
 510              		.thumb
 511              		.thumb_func
 512              		.fpu softvfp
 514              	HAL_DBGMCU_DisableDBGStandbyMode:
 515              		@ args = 0, pretend = 0, frame = 0
 516              		@ frame_needed = 0, uses_anonymous_args = 0
 517              		@ link register save eliminated.
 518 0000 024A     		ldr	r2, .L75
 519 0002 5368     		ldr	r3, [r2, #4]
 520 0004 23F00403 		bic	r3, r3, #4
 521 0008 5360     		str	r3, [r2, #4]
 522 000a 7047     		bx	lr
 523              	.L76:
 524              		.align	2
 525              	.L75:
 526 000c 002004E0 		.word	-536600576
 528              		.section	.text.HAL_GetUID,"ax",%progbits
 529              		.align	1
 530              		.global	HAL_GetUID
 531              		.syntax unified
 532              		.thumb
 533              		.thumb_func
 534              		.fpu softvfp
 536              	HAL_GetUID:
 537              		@ args = 0, pretend = 0, frame = 0
 538              		@ frame_needed = 0, uses_anonymous_args = 0
 539              		@ link register save eliminated.
 540 0000 044B     		ldr	r3, .L78
 541 0002 1B68     		ldr	r3, [r3]
 542 0004 0360     		str	r3, [r0]
 543 0006 044B     		ldr	r3, .L78+4
 544 0008 1B68     		ldr	r3, [r3]
 545 000a 4360     		str	r3, [r0, #4]
 546 000c 034B     		ldr	r3, .L78+8
 547 000e 1B68     		ldr	r3, [r3]
 548 0010 8360     		str	r3, [r0, #8]
 549 0012 7047     		bx	lr
 550              	.L79:
 551              		.align	2
 552              	.L78:
 553 0014 E8F7FF1F 		.word	536868840
 554 0018 ECF7FF1F 		.word	536868844
 555 001c F0F7FF1F 		.word	536868848
 557              		.global	uwTickFreq
 558              		.global	uwTickPrio
 559              		.comm	uwTick,4,4
ARM GAS  /tmp/ccC4ZKun.s 			page 10


 560              		.section	.data.uwTickFreq,"aw"
 561              		.set	.LANCHOR0,. + 0
 564              	uwTickFreq:
 565 0000 01       		.byte	1
 566              		.section	.data.uwTickPrio,"aw"
 567              		.align	2
 568              		.set	.LANCHOR1,. + 0
 571              	uwTickPrio:
 572 0000 10000000 		.word	16
 573              		.ident	"GCC: (GNU Tools for Arm Embedded Processors 8-2018-q4-major) 8.2.1 20181213 (release) [gcc
ARM GAS  /tmp/ccC4ZKun.s 			page 11

