ARM GAS  /tmp/ccc3S8W4.s 			page 1


   1              		.cpu cortex-m3
   2              		.eabi_attribute 20, 1
   3              		.eabi_attribute 21, 1
   4              		.eabi_attribute 23, 3
   5              		.eabi_attribute 24, 1
   6              		.eabi_attribute 25, 1
   7              		.eabi_attribute 26, 1
   8              		.eabi_attribute 30, 1
   9              		.eabi_attribute 34, 1
  10              		.eabi_attribute 18, 4
  11              		.file	"syscalls.c"
  12              		.text
  13              		.section	.text.initialise_monitor_handles,"ax",%progbits
  14              		.align	1
  15              		.global	initialise_monitor_handles
  16              		.arch armv7-m
  17              		.syntax unified
  18              		.thumb
  19              		.thumb_func
  20              		.fpu softvfp
  22              	initialise_monitor_handles:
  23              		@ args = 0, pretend = 0, frame = 0
  24              		@ frame_needed = 0, uses_anonymous_args = 0
  25              		@ link register save eliminated.
  26 0000 7047     		bx	lr
  28              		.section	.text._getpid,"ax",%progbits
  29              		.align	1
  30              		.global	_getpid
  31              		.syntax unified
  32              		.thumb
  33              		.thumb_func
  34              		.fpu softvfp
  36              	_getpid:
  37              		@ args = 0, pretend = 0, frame = 0
  38              		@ frame_needed = 0, uses_anonymous_args = 0
  39              		@ link register save eliminated.
  40 0000 0120     		movs	r0, #1
  41 0002 7047     		bx	lr
  43              		.section	.text._kill,"ax",%progbits
  44              		.align	1
  45              		.global	_kill
  46              		.syntax unified
  47              		.thumb
  48              		.thumb_func
  49              		.fpu softvfp
  51              	_kill:
  52              		@ args = 0, pretend = 0, frame = 0
  53              		@ frame_needed = 0, uses_anonymous_args = 0
  54 0000 08B5     		push	{r3, lr}
  55 0002 FFF7FEFF 		bl	__errno
  56 0006 1623     		movs	r3, #22
  57 0008 0360     		str	r3, [r0]
  58 000a 4FF0FF30 		mov	r0, #-1
  59 000e 08BD     		pop	{r3, pc}
  61              		.section	.text._exit,"ax",%progbits
  62              		.align	1
  63              		.global	_exit
ARM GAS  /tmp/ccc3S8W4.s 			page 2


  64              		.syntax unified
  65              		.thumb
  66              		.thumb_func
  67              		.fpu softvfp
  69              	_exit:
  70              		@ Volatile: function does not return.
  71              		@ args = 0, pretend = 0, frame = 0
  72              		@ frame_needed = 0, uses_anonymous_args = 0
  73 0000 08B5     		push	{r3, lr}
  74 0002 4FF0FF31 		mov	r1, #-1
  75 0006 FFF7FEFF 		bl	_kill
  76              	.L6:
  77 000a FEE7     		b	.L6
  79              		.section	.text._read,"ax",%progbits
  80              		.align	1
  81              		.global	_read
  82              		.syntax unified
  83              		.thumb
  84              		.thumb_func
  85              		.fpu softvfp
  87              	_read:
  88              		@ args = 0, pretend = 0, frame = 0
  89              		@ frame_needed = 0, uses_anonymous_args = 0
  90 0000 70B5     		push	{r4, r5, r6, lr}
  91 0002 0C46     		mov	r4, r1
  92 0004 1646     		mov	r6, r2
  93 0006 0025     		movs	r5, #0
  94              	.L9:
  95 0008 B542     		cmp	r5, r6
  96 000a 07DA     		bge	.L12
  97 000c FFF7FEFF 		bl	__io_getchar
  98 0010 2146     		mov	r1, r4
  99 0012 01F8010B 		strb	r0, [r1], #1
 100 0016 0135     		adds	r5, r5, #1
 101 0018 0C46     		mov	r4, r1
 102 001a F5E7     		b	.L9
 103              	.L12:
 104 001c 3046     		mov	r0, r6
 105 001e 70BD     		pop	{r4, r5, r6, pc}
 107              		.section	.text._write,"ax",%progbits
 108              		.align	1
 109              		.global	_write
 110              		.syntax unified
 111              		.thumb
 112              		.thumb_func
 113              		.fpu softvfp
 115              	_write:
 116              		@ args = 0, pretend = 0, frame = 0
 117              		@ frame_needed = 0, uses_anonymous_args = 0
 118 0000 70B5     		push	{r4, r5, r6, lr}
 119 0002 0C46     		mov	r4, r1
 120 0004 1646     		mov	r6, r2
 121 0006 0025     		movs	r5, #0
 122              	.L14:
 123 0008 B542     		cmp	r5, r6
 124 000a 05DA     		bge	.L17
 125 000c 14F8010B 		ldrb	r0, [r4], #1	@ zero_extendqisi2
ARM GAS  /tmp/ccc3S8W4.s 			page 3


 126 0010 FFF7FEFF 		bl	__io_putchar
 127 0014 0135     		adds	r5, r5, #1
 128 0016 F7E7     		b	.L14
 129              	.L17:
 130 0018 3046     		mov	r0, r6
 131 001a 70BD     		pop	{r4, r5, r6, pc}
 133              		.section	.text._sbrk,"ax",%progbits
 134              		.align	1
 135              		.global	_sbrk
 136              		.syntax unified
 137              		.thumb
 138              		.thumb_func
 139              		.fpu softvfp
 141              	_sbrk:
 142              		@ args = 0, pretend = 0, frame = 0
 143              		@ frame_needed = 0, uses_anonymous_args = 0
 144 0000 08B5     		push	{r3, lr}
 145 0002 0346     		mov	r3, r0
 146 0004 0B4A     		ldr	r2, .L25
 147 0006 1268     		ldr	r2, [r2]
 148 0008 42B1     		cbz	r2, .L23
 149              	.L19:
 150 000a 0A4A     		ldr	r2, .L25
 151 000c 1068     		ldr	r0, [r2]
 152 000e 0344     		add	r3, r3, r0
 153 0010 6A46     		mov	r2, sp
 154 0012 9342     		cmp	r3, r2
 155 0014 06D8     		bhi	.L24
 156 0016 074A     		ldr	r2, .L25
 157 0018 1360     		str	r3, [r2]
 158              	.L18:
 159 001a 08BD     		pop	{r3, pc}
 160              	.L23:
 161 001c 054A     		ldr	r2, .L25
 162 001e 0649     		ldr	r1, .L25+4
 163 0020 1160     		str	r1, [r2]
 164 0022 F2E7     		b	.L19
 165              	.L24:
 166 0024 FFF7FEFF 		bl	__errno
 167 0028 0C23     		movs	r3, #12
 168 002a 0360     		str	r3, [r0]
 169 002c 4FF0FF30 		mov	r0, #-1
 170 0030 F3E7     		b	.L18
 171              	.L26:
 172 0032 00BF     		.align	2
 173              	.L25:
 174 0034 00000000 		.word	.LANCHOR0
 175 0038 00000000 		.word	end
 177              		.section	.text._close,"ax",%progbits
 178              		.align	1
 179              		.global	_close
 180              		.syntax unified
 181              		.thumb
 182              		.thumb_func
 183              		.fpu softvfp
 185              	_close:
 186              		@ args = 0, pretend = 0, frame = 0
ARM GAS  /tmp/ccc3S8W4.s 			page 4


 187              		@ frame_needed = 0, uses_anonymous_args = 0
 188              		@ link register save eliminated.
 189 0000 4FF0FF30 		mov	r0, #-1
 190 0004 7047     		bx	lr
 192              		.section	.text._fstat,"ax",%progbits
 193              		.align	1
 194              		.global	_fstat
 195              		.syntax unified
 196              		.thumb
 197              		.thumb_func
 198              		.fpu softvfp
 200              	_fstat:
 201              		@ args = 0, pretend = 0, frame = 0
 202              		@ frame_needed = 0, uses_anonymous_args = 0
 203              		@ link register save eliminated.
 204 0000 4FF40053 		mov	r3, #8192
 205 0004 4B60     		str	r3, [r1, #4]
 206 0006 0020     		movs	r0, #0
 207 0008 7047     		bx	lr
 209              		.section	.text._isatty,"ax",%progbits
 210              		.align	1
 211              		.global	_isatty
 212              		.syntax unified
 213              		.thumb
 214              		.thumb_func
 215              		.fpu softvfp
 217              	_isatty:
 218              		@ args = 0, pretend = 0, frame = 0
 219              		@ frame_needed = 0, uses_anonymous_args = 0
 220              		@ link register save eliminated.
 221 0000 0120     		movs	r0, #1
 222 0002 7047     		bx	lr
 224              		.section	.text._lseek,"ax",%progbits
 225              		.align	1
 226              		.global	_lseek
 227              		.syntax unified
 228              		.thumb
 229              		.thumb_func
 230              		.fpu softvfp
 232              	_lseek:
 233              		@ args = 0, pretend = 0, frame = 0
 234              		@ frame_needed = 0, uses_anonymous_args = 0
 235              		@ link register save eliminated.
 236 0000 0020     		movs	r0, #0
 237 0002 7047     		bx	lr
 239              		.section	.text._open,"ax",%progbits
 240              		.align	1
 241              		.global	_open
 242              		.syntax unified
 243              		.thumb
 244              		.thumb_func
 245              		.fpu softvfp
 247              	_open:
 248              		@ args = 4, pretend = 12, frame = 0
 249              		@ frame_needed = 0, uses_anonymous_args = 1
 250              		@ link register save eliminated.
 251 0000 0EB4     		push	{r1, r2, r3}
ARM GAS  /tmp/ccc3S8W4.s 			page 5


 252 0002 4FF0FF30 		mov	r0, #-1
 253 0006 03B0     		add	sp, sp, #12
 254 0008 7047     		bx	lr
 256              		.section	.text._wait,"ax",%progbits
 257              		.align	1
 258              		.global	_wait
 259              		.syntax unified
 260              		.thumb
 261              		.thumb_func
 262              		.fpu softvfp
 264              	_wait:
 265              		@ args = 0, pretend = 0, frame = 0
 266              		@ frame_needed = 0, uses_anonymous_args = 0
 267 0000 08B5     		push	{r3, lr}
 268 0002 FFF7FEFF 		bl	__errno
 269 0006 0A23     		movs	r3, #10
 270 0008 0360     		str	r3, [r0]
 271 000a 4FF0FF30 		mov	r0, #-1
 272 000e 08BD     		pop	{r3, pc}
 274              		.section	.text._unlink,"ax",%progbits
 275              		.align	1
 276              		.global	_unlink
 277              		.syntax unified
 278              		.thumb
 279              		.thumb_func
 280              		.fpu softvfp
 282              	_unlink:
 283              		@ args = 0, pretend = 0, frame = 0
 284              		@ frame_needed = 0, uses_anonymous_args = 0
 285 0000 08B5     		push	{r3, lr}
 286 0002 FFF7FEFF 		bl	__errno
 287 0006 0223     		movs	r3, #2
 288 0008 0360     		str	r3, [r0]
 289 000a 4FF0FF30 		mov	r0, #-1
 290 000e 08BD     		pop	{r3, pc}
 292              		.section	.text._times,"ax",%progbits
 293              		.align	1
 294              		.global	_times
 295              		.syntax unified
 296              		.thumb
 297              		.thumb_func
 298              		.fpu softvfp
 300              	_times:
 301              		@ args = 0, pretend = 0, frame = 0
 302              		@ frame_needed = 0, uses_anonymous_args = 0
 303              		@ link register save eliminated.
 304 0000 4FF0FF30 		mov	r0, #-1
 305 0004 7047     		bx	lr
 307              		.section	.text._stat,"ax",%progbits
 308              		.align	1
 309              		.global	_stat
 310              		.syntax unified
 311              		.thumb
 312              		.thumb_func
 313              		.fpu softvfp
 315              	_stat:
 316              		@ args = 0, pretend = 0, frame = 0
ARM GAS  /tmp/ccc3S8W4.s 			page 6


 317              		@ frame_needed = 0, uses_anonymous_args = 0
 318              		@ link register save eliminated.
 319 0000 4FF40053 		mov	r3, #8192
 320 0004 4B60     		str	r3, [r1, #4]
 321 0006 0020     		movs	r0, #0
 322 0008 7047     		bx	lr
 324              		.section	.text._link,"ax",%progbits
 325              		.align	1
 326              		.global	_link
 327              		.syntax unified
 328              		.thumb
 329              		.thumb_func
 330              		.fpu softvfp
 332              	_link:
 333              		@ args = 0, pretend = 0, frame = 0
 334              		@ frame_needed = 0, uses_anonymous_args = 0
 335 0000 08B5     		push	{r3, lr}
 336 0002 FFF7FEFF 		bl	__errno
 337 0006 1F23     		movs	r3, #31
 338 0008 0360     		str	r3, [r0]
 339 000a 4FF0FF30 		mov	r0, #-1
 340 000e 08BD     		pop	{r3, pc}
 342              		.section	.text._fork,"ax",%progbits
 343              		.align	1
 344              		.global	_fork
 345              		.syntax unified
 346              		.thumb
 347              		.thumb_func
 348              		.fpu softvfp
 350              	_fork:
 351              		@ args = 0, pretend = 0, frame = 0
 352              		@ frame_needed = 0, uses_anonymous_args = 0
 353 0000 08B5     		push	{r3, lr}
 354 0002 FFF7FEFF 		bl	__errno
 355 0006 0B23     		movs	r3, #11
 356 0008 0360     		str	r3, [r0]
 357 000a 4FF0FF30 		mov	r0, #-1
 358 000e 08BD     		pop	{r3, pc}
 360              		.section	.text._execve,"ax",%progbits
 361              		.align	1
 362              		.global	_execve
 363              		.syntax unified
 364              		.thumb
 365              		.thumb_func
 366              		.fpu softvfp
 368              	_execve:
 369              		@ args = 0, pretend = 0, frame = 0
 370              		@ frame_needed = 0, uses_anonymous_args = 0
 371 0000 08B5     		push	{r3, lr}
 372 0002 FFF7FEFF 		bl	__errno
 373 0006 0C23     		movs	r3, #12
 374 0008 0360     		str	r3, [r0]
 375 000a 4FF0FF30 		mov	r0, #-1
 376 000e 08BD     		pop	{r3, pc}
 378              		.global	environ
 379              		.global	__env
 380              		.section	.bss.__env,"aw",%nobits
ARM GAS  /tmp/ccc3S8W4.s 			page 7


 381              		.align	2
 384              	__env:
 385 0000 00000000 		.space	4
 386              		.section	.bss.heap_end.6073,"aw",%nobits
 387              		.align	2
 388              		.set	.LANCHOR0,. + 0
 391              	heap_end.6073:
 392 0000 00000000 		.space	4
 393              		.section	.data.environ,"aw"
 394              		.align	2
 397              	environ:
 398 0000 00000000 		.word	__env
 399              		.weak	__io_putchar
 400              		.weak	__io_getchar
 401              		.ident	"GCC: (GNU Tools for Arm Embedded Processors 8-2018-q4-major) 8.2.1 20181213 (release) [gcc
ARM GAS  /tmp/ccc3S8W4.s 			page 8

