ARM GAS  /tmp/ccWMG73E.s 			page 1


   1              		.cpu cortex-m3
   2              		.eabi_attribute 20, 1
   3              		.eabi_attribute 21, 1
   4              		.eabi_attribute 23, 3
   5              		.eabi_attribute 24, 1
   6              		.eabi_attribute 25, 1
   7              		.eabi_attribute 26, 1
   8              		.eabi_attribute 30, 1
   9              		.eabi_attribute 34, 1
  10              		.eabi_attribute 18, 4
  11              		.file	"usbd_conf.c"
  12              		.text
  13              		.section	.text.USBD_Get_USB_Status,"ax",%progbits
  14              		.align	1
  15              		.arch armv7-m
  16              		.syntax unified
  17              		.thumb
  18              		.thumb_func
  19              		.fpu softvfp
  21              	USBD_Get_USB_Status:
  22              		@ args = 0, pretend = 0, frame = 0
  23              		@ frame_needed = 0, uses_anonymous_args = 0
  24              		@ link register save eliminated.
  25 0000 0228     		cmp	r0, #2
  26 0002 07D8     		bhi	.L6
  27 0004 DFE800F0 		tbb	[pc, r0]
  28              	.L4:
  29 0008 02       		.byte	(.L5-.L4)/2
  30 0009 06       		.byte	(.L6-.L4)/2
  31 000a 04       		.byte	(.L3-.L4)/2
  32 000b 00       		.p2align 1
  33              	.L5:
  34 000c 0020     		movs	r0, #0
  35 000e 7047     		bx	lr
  36              	.L3:
  37 0010 0120     		movs	r0, #1
  38 0012 7047     		bx	lr
  39              	.L6:
  40 0014 0220     		movs	r0, #2
  41 0016 7047     		bx	lr
  43              		.section	.text.HAL_PCD_MspInit,"ax",%progbits
  44              		.align	1
  45              		.global	HAL_PCD_MspInit
  46              		.syntax unified
  47              		.thumb
  48              		.thumb_func
  49              		.fpu softvfp
  51              	HAL_PCD_MspInit:
  52              		@ args = 0, pretend = 0, frame = 8
  53              		@ frame_needed = 0, uses_anonymous_args = 0
  54 0000 0268     		ldr	r2, [r0]
  55 0002 0E4B     		ldr	r3, .L14
  56 0004 9A42     		cmp	r2, r3
  57 0006 00D0     		beq	.L13
  58 0008 7047     		bx	lr
  59              	.L13:
  60 000a 00B5     		push	{lr}
ARM GAS  /tmp/ccWMG73E.s 			page 2


  61 000c 83B0     		sub	sp, sp, #12
  62 000e 03F5DA33 		add	r3, r3, #111616
  63 0012 DA69     		ldr	r2, [r3, #28]
  64 0014 42F40002 		orr	r2, r2, #8388608
  65 0018 DA61     		str	r2, [r3, #28]
  66 001a DB69     		ldr	r3, [r3, #28]
  67 001c 03F40003 		and	r3, r3, #8388608
  68 0020 0193     		str	r3, [sp, #4]
  69 0022 019B     		ldr	r3, [sp, #4]
  70 0024 0022     		movs	r2, #0
  71 0026 1146     		mov	r1, r2
  72 0028 1420     		movs	r0, #20
  73 002a FFF7FEFF 		bl	HAL_NVIC_SetPriority
  74 002e 1420     		movs	r0, #20
  75 0030 FFF7FEFF 		bl	HAL_NVIC_EnableIRQ
  76 0034 03B0     		add	sp, sp, #12
  77              		@ sp needed
  78 0036 5DF804FB 		ldr	pc, [sp], #4
  79              	.L15:
  80 003a 00BF     		.align	2
  81              	.L14:
  82 003c 005C0040 		.word	1073765376
  84              		.section	.text.HAL_PCD_MspDeInit,"ax",%progbits
  85              		.align	1
  86              		.global	HAL_PCD_MspDeInit
  87              		.syntax unified
  88              		.thumb
  89              		.thumb_func
  90              		.fpu softvfp
  92              	HAL_PCD_MspDeInit:
  93              		@ args = 0, pretend = 0, frame = 0
  94              		@ frame_needed = 0, uses_anonymous_args = 0
  95 0000 08B5     		push	{r3, lr}
  96 0002 0268     		ldr	r2, [r0]
  97 0004 064B     		ldr	r3, .L20
  98 0006 9A42     		cmp	r2, r3
  99 0008 00D0     		beq	.L19
 100              	.L16:
 101 000a 08BD     		pop	{r3, pc}
 102              	.L19:
 103 000c 054A     		ldr	r2, .L20+4
 104 000e D369     		ldr	r3, [r2, #28]
 105 0010 23F40003 		bic	r3, r3, #8388608
 106 0014 D361     		str	r3, [r2, #28]
 107 0016 1420     		movs	r0, #20
 108 0018 FFF7FEFF 		bl	HAL_NVIC_DisableIRQ
 109 001c F5E7     		b	.L16
 110              	.L21:
 111 001e 00BF     		.align	2
 112              	.L20:
 113 0020 005C0040 		.word	1073765376
 114 0024 00100240 		.word	1073876992
 116              		.section	.text.HAL_PCD_SetupStageCallback,"ax",%progbits
 117              		.align	1
 118              		.global	HAL_PCD_SetupStageCallback
 119              		.syntax unified
 120              		.thumb
ARM GAS  /tmp/ccWMG73E.s 			page 3


 121              		.thumb_func
 122              		.fpu softvfp
 124              	HAL_PCD_SetupStageCallback:
 125              		@ args = 0, pretend = 0, frame = 0
 126              		@ frame_needed = 0, uses_anonymous_args = 0
 127 0000 08B5     		push	{r3, lr}
 128 0002 00F22C41 		addw	r1, r0, #1068
 129 0006 D0F85C04 		ldr	r0, [r0, #1116]
 130 000a FFF7FEFF 		bl	USBD_LL_SetupStage
 131 000e 08BD     		pop	{r3, pc}
 133              		.section	.text.HAL_PCD_DataOutStageCallback,"ax",%progbits
 134              		.align	1
 135              		.global	HAL_PCD_DataOutStageCallback
 136              		.syntax unified
 137              		.thumb
 138              		.thumb_func
 139              		.fpu softvfp
 141              	HAL_PCD_DataOutStageCallback:
 142              		@ args = 0, pretend = 0, frame = 0
 143              		@ frame_needed = 0, uses_anonymous_args = 0
 144 0000 08B5     		push	{r3, lr}
 145 0002 00EB4113 		add	r3, r0, r1, lsl #5
 146 0006 D3F83C22 		ldr	r2, [r3, #572]
 147 000a D0F85C04 		ldr	r0, [r0, #1116]
 148 000e FFF7FEFF 		bl	USBD_LL_DataOutStage
 149 0012 08BD     		pop	{r3, pc}
 151              		.section	.text.HAL_PCD_DataInStageCallback,"ax",%progbits
 152              		.align	1
 153              		.global	HAL_PCD_DataInStageCallback
 154              		.syntax unified
 155              		.thumb
 156              		.thumb_func
 157              		.fpu softvfp
 159              	HAL_PCD_DataInStageCallback:
 160              		@ args = 0, pretend = 0, frame = 0
 161              		@ frame_needed = 0, uses_anonymous_args = 0
 162 0000 08B5     		push	{r3, lr}
 163 0002 00EB4113 		add	r3, r0, r1, lsl #5
 164 0006 DA6B     		ldr	r2, [r3, #60]
 165 0008 D0F85C04 		ldr	r0, [r0, #1116]
 166 000c FFF7FEFF 		bl	USBD_LL_DataInStage
 167 0010 08BD     		pop	{r3, pc}
 169              		.section	.text.HAL_PCD_SOFCallback,"ax",%progbits
 170              		.align	1
 171              		.global	HAL_PCD_SOFCallback
 172              		.syntax unified
 173              		.thumb
 174              		.thumb_func
 175              		.fpu softvfp
 177              	HAL_PCD_SOFCallback:
 178              		@ args = 0, pretend = 0, frame = 0
 179              		@ frame_needed = 0, uses_anonymous_args = 0
 180 0000 08B5     		push	{r3, lr}
 181 0002 D0F85C04 		ldr	r0, [r0, #1116]
 182 0006 FFF7FEFF 		bl	USBD_LL_SOF
 183 000a 08BD     		pop	{r3, pc}
 185              		.section	.text.HAL_PCD_ResetCallback,"ax",%progbits
ARM GAS  /tmp/ccWMG73E.s 			page 4


 186              		.align	1
 187              		.global	HAL_PCD_ResetCallback
 188              		.syntax unified
 189              		.thumb
 190              		.thumb_func
 191              		.fpu softvfp
 193              	HAL_PCD_ResetCallback:
 194              		@ args = 0, pretend = 0, frame = 0
 195              		@ frame_needed = 0, uses_anonymous_args = 0
 196 0000 10B5     		push	{r4, lr}
 197 0002 0446     		mov	r4, r0
 198 0004 8368     		ldr	r3, [r0, #8]
 199 0006 022B     		cmp	r3, #2
 200 0008 09D1     		bne	.L33
 201              	.L31:
 202 000a 0121     		movs	r1, #1
 203 000c D4F85C04 		ldr	r0, [r4, #1116]
 204 0010 FFF7FEFF 		bl	USBD_LL_SetSpeed
 205 0014 D4F85C04 		ldr	r0, [r4, #1116]
 206 0018 FFF7FEFF 		bl	USBD_LL_Reset
 207 001c 10BD     		pop	{r4, pc}
 208              	.L33:
 209 001e FFF7FEFF 		bl	Error_Handler
 210 0022 F2E7     		b	.L31
 212              		.section	.text.HAL_PCD_SuspendCallback,"ax",%progbits
 213              		.align	1
 214              		.global	HAL_PCD_SuspendCallback
 215              		.syntax unified
 216              		.thumb
 217              		.thumb_func
 218              		.fpu softvfp
 220              	HAL_PCD_SuspendCallback:
 221              		@ args = 0, pretend = 0, frame = 0
 222              		@ frame_needed = 0, uses_anonymous_args = 0
 223 0000 10B5     		push	{r4, lr}
 224 0002 0446     		mov	r4, r0
 225 0004 D0F85C04 		ldr	r0, [r0, #1116]
 226 0008 FFF7FEFF 		bl	USBD_LL_Suspend
 227 000c A369     		ldr	r3, [r4, #24]
 228 000e 23B1     		cbz	r3, .L34
 229 0010 024A     		ldr	r2, .L37
 230 0012 1369     		ldr	r3, [r2, #16]
 231 0014 43F00603 		orr	r3, r3, #6
 232 0018 1361     		str	r3, [r2, #16]
 233              	.L34:
 234 001a 10BD     		pop	{r4, pc}
 235              	.L38:
 236              		.align	2
 237              	.L37:
 238 001c 00ED00E0 		.word	-536810240
 240              		.section	.text.HAL_PCD_ResumeCallback,"ax",%progbits
 241              		.align	1
 242              		.global	HAL_PCD_ResumeCallback
 243              		.syntax unified
 244              		.thumb
 245              		.thumb_func
 246              		.fpu softvfp
ARM GAS  /tmp/ccWMG73E.s 			page 5


 248              	HAL_PCD_ResumeCallback:
 249              		@ args = 0, pretend = 0, frame = 0
 250              		@ frame_needed = 0, uses_anonymous_args = 0
 251 0000 08B5     		push	{r3, lr}
 252 0002 D0F85C04 		ldr	r0, [r0, #1116]
 253 0006 FFF7FEFF 		bl	USBD_LL_Resume
 254 000a 08BD     		pop	{r3, pc}
 256              		.section	.text.HAL_PCD_ISOOUTIncompleteCallback,"ax",%progbits
 257              		.align	1
 258              		.global	HAL_PCD_ISOOUTIncompleteCallback
 259              		.syntax unified
 260              		.thumb
 261              		.thumb_func
 262              		.fpu softvfp
 264              	HAL_PCD_ISOOUTIncompleteCallback:
 265              		@ args = 0, pretend = 0, frame = 0
 266              		@ frame_needed = 0, uses_anonymous_args = 0
 267 0000 08B5     		push	{r3, lr}
 268 0002 D0F85C04 		ldr	r0, [r0, #1116]
 269 0006 FFF7FEFF 		bl	USBD_LL_IsoOUTIncomplete
 270 000a 08BD     		pop	{r3, pc}
 272              		.section	.text.HAL_PCD_ISOINIncompleteCallback,"ax",%progbits
 273              		.align	1
 274              		.global	HAL_PCD_ISOINIncompleteCallback
 275              		.syntax unified
 276              		.thumb
 277              		.thumb_func
 278              		.fpu softvfp
 280              	HAL_PCD_ISOINIncompleteCallback:
 281              		@ args = 0, pretend = 0, frame = 0
 282              		@ frame_needed = 0, uses_anonymous_args = 0
 283 0000 08B5     		push	{r3, lr}
 284 0002 D0F85C04 		ldr	r0, [r0, #1116]
 285 0006 FFF7FEFF 		bl	USBD_LL_IsoINIncomplete
 286 000a 08BD     		pop	{r3, pc}
 288              		.section	.text.HAL_PCD_ConnectCallback,"ax",%progbits
 289              		.align	1
 290              		.global	HAL_PCD_ConnectCallback
 291              		.syntax unified
 292              		.thumb
 293              		.thumb_func
 294              		.fpu softvfp
 296              	HAL_PCD_ConnectCallback:
 297              		@ args = 0, pretend = 0, frame = 0
 298              		@ frame_needed = 0, uses_anonymous_args = 0
 299 0000 08B5     		push	{r3, lr}
 300 0002 D0F85C04 		ldr	r0, [r0, #1116]
 301 0006 FFF7FEFF 		bl	USBD_LL_DevConnected
 302 000a 08BD     		pop	{r3, pc}
 304              		.section	.text.HAL_PCD_DisconnectCallback,"ax",%progbits
 305              		.align	1
 306              		.global	HAL_PCD_DisconnectCallback
 307              		.syntax unified
 308              		.thumb
 309              		.thumb_func
 310              		.fpu softvfp
 312              	HAL_PCD_DisconnectCallback:
ARM GAS  /tmp/ccWMG73E.s 			page 6


 313              		@ args = 0, pretend = 0, frame = 0
 314              		@ frame_needed = 0, uses_anonymous_args = 0
 315 0000 08B5     		push	{r3, lr}
 316 0002 D0F85C04 		ldr	r0, [r0, #1116]
 317 0006 FFF7FEFF 		bl	USBD_LL_DevDisconnected
 318 000a 08BD     		pop	{r3, pc}
 320              		.section	.text.USBD_LL_Init,"ax",%progbits
 321              		.align	1
 322              		.global	USBD_LL_Init
 323              		.syntax unified
 324              		.thumb
 325              		.thumb_func
 326              		.fpu softvfp
 328              	USBD_LL_Init:
 329              		@ args = 0, pretend = 0, frame = 0
 330              		@ frame_needed = 0, uses_anonymous_args = 0
 331 0000 10B5     		push	{r4, lr}
 332 0002 0446     		mov	r4, r0
 333 0004 1D48     		ldr	r0, .L53
 334 0006 C0F85C44 		str	r4, [r0, #1116]
 335 000a C4F82002 		str	r0, [r4, #544]
 336 000e 1C4B     		ldr	r3, .L53+4
 337 0010 0360     		str	r3, [r0]
 338 0012 0823     		movs	r3, #8
 339 0014 4360     		str	r3, [r0, #4]
 340 0016 0223     		movs	r3, #2
 341 0018 8360     		str	r3, [r0, #8]
 342 001a 0023     		movs	r3, #0
 343 001c 8361     		str	r3, [r0, #24]
 344 001e C361     		str	r3, [r0, #28]
 345 0020 0362     		str	r3, [r0, #32]
 346 0022 FFF7FEFF 		bl	HAL_PCD_Init
 347 0026 30BB     		cbnz	r0, .L52
 348              	.L50:
 349 0028 1823     		movs	r3, #24
 350 002a 0022     		movs	r2, #0
 351 002c 1146     		mov	r1, r2
 352 002e D4F82002 		ldr	r0, [r4, #544]
 353 0032 FFF7FEFF 		bl	HAL_PCDEx_PMAConfig
 354 0036 5823     		movs	r3, #88
 355 0038 0022     		movs	r2, #0
 356 003a 8021     		movs	r1, #128
 357 003c D4F82002 		ldr	r0, [r4, #544]
 358 0040 FFF7FEFF 		bl	HAL_PCDEx_PMAConfig
 359 0044 C023     		movs	r3, #192
 360 0046 0022     		movs	r2, #0
 361 0048 8121     		movs	r1, #129
 362 004a D4F82002 		ldr	r0, [r4, #544]
 363 004e FFF7FEFF 		bl	HAL_PCDEx_PMAConfig
 364 0052 4FF48873 		mov	r3, #272
 365 0056 0022     		movs	r2, #0
 366 0058 0121     		movs	r1, #1
 367 005a D4F82002 		ldr	r0, [r4, #544]
 368 005e FFF7FEFF 		bl	HAL_PCDEx_PMAConfig
 369 0062 4FF48073 		mov	r3, #256
 370 0066 0022     		movs	r2, #0
 371 0068 8221     		movs	r1, #130
ARM GAS  /tmp/ccWMG73E.s 			page 7


 372 006a D4F82002 		ldr	r0, [r4, #544]
 373 006e FFF7FEFF 		bl	HAL_PCDEx_PMAConfig
 374 0072 0020     		movs	r0, #0
 375 0074 10BD     		pop	{r4, pc}
 376              	.L52:
 377 0076 FFF7FEFF 		bl	Error_Handler
 378 007a D5E7     		b	.L50
 379              	.L54:
 380              		.align	2
 381              	.L53:
 382 007c 00000000 		.word	hpcd_USB_FS
 383 0080 005C0040 		.word	1073765376
 385              		.section	.text.USBD_LL_DeInit,"ax",%progbits
 386              		.align	1
 387              		.global	USBD_LL_DeInit
 388              		.syntax unified
 389              		.thumb
 390              		.thumb_func
 391              		.fpu softvfp
 393              	USBD_LL_DeInit:
 394              		@ args = 0, pretend = 0, frame = 0
 395              		@ frame_needed = 0, uses_anonymous_args = 0
 396 0000 08B5     		push	{r3, lr}
 397 0002 D0F82002 		ldr	r0, [r0, #544]
 398 0006 FFF7FEFF 		bl	HAL_PCD_DeInit
 399 000a FFF7FEFF 		bl	USBD_Get_USB_Status
 400 000e 08BD     		pop	{r3, pc}
 402              		.section	.text.USBD_LL_Start,"ax",%progbits
 403              		.align	1
 404              		.global	USBD_LL_Start
 405              		.syntax unified
 406              		.thumb
 407              		.thumb_func
 408              		.fpu softvfp
 410              	USBD_LL_Start:
 411              		@ args = 0, pretend = 0, frame = 0
 412              		@ frame_needed = 0, uses_anonymous_args = 0
 413 0000 08B5     		push	{r3, lr}
 414 0002 D0F82002 		ldr	r0, [r0, #544]
 415 0006 FFF7FEFF 		bl	HAL_PCD_Start
 416 000a FFF7FEFF 		bl	USBD_Get_USB_Status
 417 000e 08BD     		pop	{r3, pc}
 419              		.section	.text.USBD_LL_Stop,"ax",%progbits
 420              		.align	1
 421              		.global	USBD_LL_Stop
 422              		.syntax unified
 423              		.thumb
 424              		.thumb_func
 425              		.fpu softvfp
 427              	USBD_LL_Stop:
 428              		@ args = 0, pretend = 0, frame = 0
 429              		@ frame_needed = 0, uses_anonymous_args = 0
 430 0000 08B5     		push	{r3, lr}
 431 0002 D0F82002 		ldr	r0, [r0, #544]
 432 0006 FFF7FEFF 		bl	HAL_PCD_Stop
 433 000a FFF7FEFF 		bl	USBD_Get_USB_Status
 434 000e 08BD     		pop	{r3, pc}
ARM GAS  /tmp/ccWMG73E.s 			page 8


 436              		.section	.text.USBD_LL_OpenEP,"ax",%progbits
 437              		.align	1
 438              		.global	USBD_LL_OpenEP
 439              		.syntax unified
 440              		.thumb
 441              		.thumb_func
 442              		.fpu softvfp
 444              	USBD_LL_OpenEP:
 445              		@ args = 0, pretend = 0, frame = 0
 446              		@ frame_needed = 0, uses_anonymous_args = 0
 447 0000 10B5     		push	{r4, lr}
 448 0002 1C46     		mov	r4, r3
 449 0004 1346     		mov	r3, r2
 450 0006 2246     		mov	r2, r4
 451 0008 D0F82002 		ldr	r0, [r0, #544]
 452 000c FFF7FEFF 		bl	HAL_PCD_EP_Open
 453 0010 FFF7FEFF 		bl	USBD_Get_USB_Status
 454 0014 10BD     		pop	{r4, pc}
 456              		.section	.text.USBD_LL_CloseEP,"ax",%progbits
 457              		.align	1
 458              		.global	USBD_LL_CloseEP
 459              		.syntax unified
 460              		.thumb
 461              		.thumb_func
 462              		.fpu softvfp
 464              	USBD_LL_CloseEP:
 465              		@ args = 0, pretend = 0, frame = 0
 466              		@ frame_needed = 0, uses_anonymous_args = 0
 467 0000 08B5     		push	{r3, lr}
 468 0002 D0F82002 		ldr	r0, [r0, #544]
 469 0006 FFF7FEFF 		bl	HAL_PCD_EP_Close
 470 000a FFF7FEFF 		bl	USBD_Get_USB_Status
 471 000e 08BD     		pop	{r3, pc}
 473              		.section	.text.USBD_LL_FlushEP,"ax",%progbits
 474              		.align	1
 475              		.global	USBD_LL_FlushEP
 476              		.syntax unified
 477              		.thumb
 478              		.thumb_func
 479              		.fpu softvfp
 481              	USBD_LL_FlushEP:
 482              		@ args = 0, pretend = 0, frame = 0
 483              		@ frame_needed = 0, uses_anonymous_args = 0
 484 0000 08B5     		push	{r3, lr}
 485 0002 D0F82002 		ldr	r0, [r0, #544]
 486 0006 FFF7FEFF 		bl	HAL_PCD_EP_Flush
 487 000a FFF7FEFF 		bl	USBD_Get_USB_Status
 488 000e 08BD     		pop	{r3, pc}
 490              		.section	.text.USBD_LL_StallEP,"ax",%progbits
 491              		.align	1
 492              		.global	USBD_LL_StallEP
 493              		.syntax unified
 494              		.thumb
 495              		.thumb_func
 496              		.fpu softvfp
 498              	USBD_LL_StallEP:
 499              		@ args = 0, pretend = 0, frame = 0
ARM GAS  /tmp/ccWMG73E.s 			page 9


 500              		@ frame_needed = 0, uses_anonymous_args = 0
 501 0000 08B5     		push	{r3, lr}
 502 0002 D0F82002 		ldr	r0, [r0, #544]
 503 0006 FFF7FEFF 		bl	HAL_PCD_EP_SetStall
 504 000a FFF7FEFF 		bl	USBD_Get_USB_Status
 505 000e 08BD     		pop	{r3, pc}
 507              		.section	.text.USBD_LL_ClearStallEP,"ax",%progbits
 508              		.align	1
 509              		.global	USBD_LL_ClearStallEP
 510              		.syntax unified
 511              		.thumb
 512              		.thumb_func
 513              		.fpu softvfp
 515              	USBD_LL_ClearStallEP:
 516              		@ args = 0, pretend = 0, frame = 0
 517              		@ frame_needed = 0, uses_anonymous_args = 0
 518 0000 08B5     		push	{r3, lr}
 519 0002 D0F82002 		ldr	r0, [r0, #544]
 520 0006 FFF7FEFF 		bl	HAL_PCD_EP_ClrStall
 521 000a FFF7FEFF 		bl	USBD_Get_USB_Status
 522 000e 08BD     		pop	{r3, pc}
 524              		.section	.text.USBD_LL_IsStallEP,"ax",%progbits
 525              		.align	1
 526              		.global	USBD_LL_IsStallEP
 527              		.syntax unified
 528              		.thumb
 529              		.thumb_func
 530              		.fpu softvfp
 532              	USBD_LL_IsStallEP:
 533              		@ args = 0, pretend = 0, frame = 0
 534              		@ frame_needed = 0, uses_anonymous_args = 0
 535              		@ link register save eliminated.
 536 0000 D0F82032 		ldr	r3, [r0, #544]
 537 0004 11F0800F 		tst	r1, #128
 538 0008 06D1     		bne	.L74
 539 000a 01F07F01 		and	r1, r1, #127
 540 000e 03EB4111 		add	r1, r3, r1, lsl #5
 541 0012 91F82A02 		ldrb	r0, [r1, #554]	@ zero_extendqisi2
 542 0016 7047     		bx	lr
 543              	.L74:
 544 0018 01F07F01 		and	r1, r1, #127
 545 001c 03EB4111 		add	r1, r3, r1, lsl #5
 546 0020 91F82A00 		ldrb	r0, [r1, #42]	@ zero_extendqisi2
 547 0024 7047     		bx	lr
 549              		.section	.text.USBD_LL_SetUSBAddress,"ax",%progbits
 550              		.align	1
 551              		.global	USBD_LL_SetUSBAddress
 552              		.syntax unified
 553              		.thumb
 554              		.thumb_func
 555              		.fpu softvfp
 557              	USBD_LL_SetUSBAddress:
 558              		@ args = 0, pretend = 0, frame = 0
 559              		@ frame_needed = 0, uses_anonymous_args = 0
 560 0000 08B5     		push	{r3, lr}
 561 0002 D0F82002 		ldr	r0, [r0, #544]
 562 0006 FFF7FEFF 		bl	HAL_PCD_SetAddress
ARM GAS  /tmp/ccWMG73E.s 			page 10


 563 000a FFF7FEFF 		bl	USBD_Get_USB_Status
 564 000e 08BD     		pop	{r3, pc}
 566              		.section	.text.USBD_LL_Transmit,"ax",%progbits
 567              		.align	1
 568              		.global	USBD_LL_Transmit
 569              		.syntax unified
 570              		.thumb
 571              		.thumb_func
 572              		.fpu softvfp
 574              	USBD_LL_Transmit:
 575              		@ args = 0, pretend = 0, frame = 0
 576              		@ frame_needed = 0, uses_anonymous_args = 0
 577 0000 08B5     		push	{r3, lr}
 578 0002 D0F82002 		ldr	r0, [r0, #544]
 579 0006 FFF7FEFF 		bl	HAL_PCD_EP_Transmit
 580 000a FFF7FEFF 		bl	USBD_Get_USB_Status
 581 000e 08BD     		pop	{r3, pc}
 583              		.section	.text.USBD_LL_PrepareReceive,"ax",%progbits
 584              		.align	1
 585              		.global	USBD_LL_PrepareReceive
 586              		.syntax unified
 587              		.thumb
 588              		.thumb_func
 589              		.fpu softvfp
 591              	USBD_LL_PrepareReceive:
 592              		@ args = 0, pretend = 0, frame = 0
 593              		@ frame_needed = 0, uses_anonymous_args = 0
 594 0000 08B5     		push	{r3, lr}
 595 0002 D0F82002 		ldr	r0, [r0, #544]
 596 0006 FFF7FEFF 		bl	HAL_PCD_EP_Receive
 597 000a FFF7FEFF 		bl	USBD_Get_USB_Status
 598 000e 08BD     		pop	{r3, pc}
 600              		.section	.text.USBD_LL_GetRxDataSize,"ax",%progbits
 601              		.align	1
 602              		.global	USBD_LL_GetRxDataSize
 603              		.syntax unified
 604              		.thumb
 605              		.thumb_func
 606              		.fpu softvfp
 608              	USBD_LL_GetRxDataSize:
 609              		@ args = 0, pretend = 0, frame = 0
 610              		@ frame_needed = 0, uses_anonymous_args = 0
 611 0000 08B5     		push	{r3, lr}
 612 0002 D0F82002 		ldr	r0, [r0, #544]
 613 0006 FFF7FEFF 		bl	HAL_PCD_EP_GetRxCount
 614 000a 08BD     		pop	{r3, pc}
 616              		.section	.text.USBD_LL_Delay,"ax",%progbits
 617              		.align	1
 618              		.global	USBD_LL_Delay
 619              		.syntax unified
 620              		.thumb
 621              		.thumb_func
 622              		.fpu softvfp
 624              	USBD_LL_Delay:
 625              		@ args = 0, pretend = 0, frame = 0
 626              		@ frame_needed = 0, uses_anonymous_args = 0
 627 0000 08B5     		push	{r3, lr}
ARM GAS  /tmp/ccWMG73E.s 			page 11


 628 0002 FFF7FEFF 		bl	HAL_Delay
 629 0006 08BD     		pop	{r3, pc}
 631              		.section	.text.USBD_static_malloc,"ax",%progbits
 632              		.align	1
 633              		.global	USBD_static_malloc
 634              		.syntax unified
 635              		.thumb
 636              		.thumb_func
 637              		.fpu softvfp
 639              	USBD_static_malloc:
 640              		@ args = 0, pretend = 0, frame = 0
 641              		@ frame_needed = 0, uses_anonymous_args = 0
 642              		@ link register save eliminated.
 643 0000 0048     		ldr	r0, .L86
 644 0002 7047     		bx	lr
 645              	.L87:
 646              		.align	2
 647              	.L86:
 648 0004 00000000 		.word	.LANCHOR0
 650              		.section	.text.USBD_static_free,"ax",%progbits
 651              		.align	1
 652              		.global	USBD_static_free
 653              		.syntax unified
 654              		.thumb
 655              		.thumb_func
 656              		.fpu softvfp
 658              	USBD_static_free:
 659              		@ args = 0, pretend = 0, frame = 0
 660              		@ frame_needed = 0, uses_anonymous_args = 0
 661              		@ link register save eliminated.
 662 0000 7047     		bx	lr
 664              		.section	.text.HAL_PCDEx_SetConnectionState,"ax",%progbits
 665              		.align	1
 666              		.global	HAL_PCDEx_SetConnectionState
 667              		.syntax unified
 668              		.thumb
 669              		.thumb_func
 670              		.fpu softvfp
 672              	HAL_PCDEx_SetConnectionState:
 673              		@ args = 0, pretend = 0, frame = 0
 674              		@ frame_needed = 0, uses_anonymous_args = 0
 675              		@ link register save eliminated.
 676 0000 7047     		bx	lr
 678              		.comm	hpcd_USB_FS,1120,4
 679              		.section	.bss.mem.7863,"aw",%nobits
 680              		.align	2
 681              		.set	.LANCHOR0,. + 0
 684              	mem.7863:
 685 0000 00000000 		.space	544
 685      00000000 
 685      00000000 
 685      00000000 
 685      00000000 
 686              		.ident	"GCC: (GNU Tools for Arm Embedded Processors 8-2018-q4-major) 8.2.1 20181213 (release) [gcc
ARM GAS  /tmp/ccWMG73E.s 			page 12

