ARM GAS  /tmp/ccDFrT2l.s 			page 1


   1              		.cpu cortex-m3
   2              		.eabi_attribute 20, 1
   3              		.eabi_attribute 21, 1
   4              		.eabi_attribute 23, 3
   5              		.eabi_attribute 24, 1
   6              		.eabi_attribute 25, 1
   7              		.eabi_attribute 26, 1
   8              		.eabi_attribute 30, 1
   9              		.eabi_attribute 34, 1
  10              		.eabi_attribute 18, 4
  11              		.file	"usbd_cdc_if.c"
  12              		.text
  13              		.section	.text.CDC_DeInit_FS,"ax",%progbits
  14              		.align	1
  15              		.arch armv7-m
  16              		.syntax unified
  17              		.thumb
  18              		.thumb_func
  19              		.fpu softvfp
  21              	CDC_DeInit_FS:
  22              		@ args = 0, pretend = 0, frame = 0
  23              		@ frame_needed = 0, uses_anonymous_args = 0
  24              		@ link register save eliminated.
  25 0000 0020     		movs	r0, #0
  26 0002 7047     		bx	lr
  28              		.section	.text.CDC_Control_FS,"ax",%progbits
  29              		.align	1
  30              		.syntax unified
  31              		.thumb
  32              		.thumb_func
  33              		.fpu softvfp
  35              	CDC_Control_FS:
  36              		@ args = 0, pretend = 0, frame = 0
  37              		@ frame_needed = 0, uses_anonymous_args = 0
  38              		@ link register save eliminated.
  39 0000 0020     		movs	r0, #0
  40 0002 7047     		bx	lr
  42              		.section	.text.CDC_Receive_FS,"ax",%progbits
  43              		.align	1
  44              		.syntax unified
  45              		.thumb
  46              		.thumb_func
  47              		.fpu softvfp
  49              	CDC_Receive_FS:
  50              		@ args = 0, pretend = 0, frame = 0
  51              		@ frame_needed = 0, uses_anonymous_args = 0
  52 0000 10B5     		push	{r4, lr}
  53 0002 054C     		ldr	r4, .L5
  54 0004 0146     		mov	r1, r0
  55 0006 2046     		mov	r0, r4
  56 0008 FFF7FEFF 		bl	USBD_CDC_SetRxBuffer
  57 000c 2046     		mov	r0, r4
  58 000e FFF7FEFF 		bl	USBD_CDC_ReceivePacket
  59 0012 0020     		movs	r0, #0
  60 0014 10BD     		pop	{r4, pc}
  61              	.L6:
  62 0016 00BF     		.align	2
ARM GAS  /tmp/ccDFrT2l.s 			page 2


  63              	.L5:
  64 0018 00000000 		.word	hUsbDeviceFS
  66              		.section	.text.CDC_Init_FS,"ax",%progbits
  67              		.align	1
  68              		.syntax unified
  69              		.thumb
  70              		.thumb_func
  71              		.fpu softvfp
  73              	CDC_Init_FS:
  74              		@ args = 0, pretend = 0, frame = 0
  75              		@ frame_needed = 0, uses_anonymous_args = 0
  76 0000 10B5     		push	{r4, lr}
  77 0002 064C     		ldr	r4, .L9
  78 0004 0022     		movs	r2, #0
  79 0006 0649     		ldr	r1, .L9+4
  80 0008 2046     		mov	r0, r4
  81 000a FFF7FEFF 		bl	USBD_CDC_SetTxBuffer
  82 000e 0549     		ldr	r1, .L9+8
  83 0010 2046     		mov	r0, r4
  84 0012 FFF7FEFF 		bl	USBD_CDC_SetRxBuffer
  85 0016 0020     		movs	r0, #0
  86 0018 10BD     		pop	{r4, pc}
  87              	.L10:
  88 001a 00BF     		.align	2
  89              	.L9:
  90 001c 00000000 		.word	hUsbDeviceFS
  91 0020 00000000 		.word	UserTxBufferFS
  92 0024 00000000 		.word	UserRxBufferFS
  94              		.section	.text.CDC_Transmit_FS,"ax",%progbits
  95              		.align	1
  96              		.global	CDC_Transmit_FS
  97              		.syntax unified
  98              		.thumb
  99              		.thumb_func
 100              		.fpu softvfp
 102              	CDC_Transmit_FS:
 103              		@ args = 0, pretend = 0, frame = 0
 104              		@ frame_needed = 0, uses_anonymous_args = 0
 105 0000 094B     		ldr	r3, .L19
 106 0002 D3F81832 		ldr	r3, [r3, #536]
 107 0006 D3F81432 		ldr	r3, [r3, #532]
 108 000a 0BB1     		cbz	r3, .L18
 109 000c 0120     		movs	r0, #1
 110 000e 7047     		bx	lr
 111              	.L18:
 112 0010 10B5     		push	{r4, lr}
 113 0012 0A46     		mov	r2, r1
 114 0014 0146     		mov	r1, r0
 115 0016 044C     		ldr	r4, .L19
 116 0018 2046     		mov	r0, r4
 117 001a FFF7FEFF 		bl	USBD_CDC_SetTxBuffer
 118 001e 2046     		mov	r0, r4
 119 0020 FFF7FEFF 		bl	USBD_CDC_TransmitPacket
 120 0024 10BD     		pop	{r4, pc}
 121              	.L20:
 122 0026 00BF     		.align	2
 123              	.L19:
ARM GAS  /tmp/ccDFrT2l.s 			page 3


 124 0028 00000000 		.word	hUsbDeviceFS
 126              		.global	USBD_Interface_fops_FS
 127              		.comm	UserTxBufferFS,1000,4
 128              		.comm	UserRxBufferFS,1000,4
 129              		.section	.data.USBD_Interface_fops_FS,"aw"
 130              		.align	2
 133              	USBD_Interface_fops_FS:
 134 0000 00000000 		.word	CDC_Init_FS
 135 0004 00000000 		.word	CDC_DeInit_FS
 136 0008 00000000 		.word	CDC_Control_FS
 137 000c 00000000 		.word	CDC_Receive_FS
 138              		.ident	"GCC: (GNU Tools for Arm Embedded Processors 8-2018-q4-major) 8.2.1 20181213 (release) [gcc
ARM GAS  /tmp/ccDFrT2l.s 			page 4

