ARM GAS  /tmp/cc5ym8bE.s 			page 1


   1              		.cpu cortex-m3
   2              		.eabi_attribute 20, 1
   3              		.eabi_attribute 21, 1
   4              		.eabi_attribute 23, 3
   5              		.eabi_attribute 24, 1
   6              		.eabi_attribute 25, 1
   7              		.eabi_attribute 26, 1
   8              		.eabi_attribute 30, 1
   9              		.eabi_attribute 34, 1
  10              		.eabi_attribute 18, 4
  11              		.file	"usbd_ioreq.c"
  12              		.text
  13              		.section	.text.USBD_CtlSendData,"ax",%progbits
  14              		.align	1
  15              		.global	USBD_CtlSendData
  16              		.arch armv7-m
  17              		.syntax unified
  18              		.thumb
  19              		.thumb_func
  20              		.fpu softvfp
  22              	USBD_CtlSendData:
  23              		@ args = 0, pretend = 0, frame = 0
  24              		@ frame_needed = 0, uses_anonymous_args = 0
  25 0000 10B5     		push	{r4, lr}
  26 0002 1346     		mov	r3, r2
  27 0004 0222     		movs	r2, #2
  28 0006 C0F8F421 		str	r2, [r0, #500]
  29 000a 8361     		str	r3, [r0, #24]
  30 000c C361     		str	r3, [r0, #28]
  31 000e 0A46     		mov	r2, r1
  32 0010 0021     		movs	r1, #0
  33 0012 FFF7FEFF 		bl	USBD_LL_Transmit
  34 0016 0020     		movs	r0, #0
  35 0018 10BD     		pop	{r4, pc}
  37              		.section	.text.USBD_CtlContinueSendData,"ax",%progbits
  38              		.align	1
  39              		.global	USBD_CtlContinueSendData
  40              		.syntax unified
  41              		.thumb
  42              		.thumb_func
  43              		.fpu softvfp
  45              	USBD_CtlContinueSendData:
  46              		@ args = 0, pretend = 0, frame = 0
  47              		@ frame_needed = 0, uses_anonymous_args = 0
  48 0000 08B5     		push	{r3, lr}
  49 0002 1346     		mov	r3, r2
  50 0004 0A46     		mov	r2, r1
  51 0006 0021     		movs	r1, #0
  52 0008 FFF7FEFF 		bl	USBD_LL_Transmit
  53 000c 0020     		movs	r0, #0
  54 000e 08BD     		pop	{r3, pc}
  56              		.section	.text.USBD_CtlPrepareRx,"ax",%progbits
  57              		.align	1
  58              		.global	USBD_CtlPrepareRx
  59              		.syntax unified
  60              		.thumb
  61              		.thumb_func
ARM GAS  /tmp/cc5ym8bE.s 			page 2


  62              		.fpu softvfp
  64              	USBD_CtlPrepareRx:
  65              		@ args = 0, pretend = 0, frame = 0
  66              		@ frame_needed = 0, uses_anonymous_args = 0
  67 0000 10B5     		push	{r4, lr}
  68 0002 1346     		mov	r3, r2
  69 0004 0322     		movs	r2, #3
  70 0006 C0F8F421 		str	r2, [r0, #500]
  71 000a C0F80831 		str	r3, [r0, #264]
  72 000e C0F80C31 		str	r3, [r0, #268]
  73 0012 0A46     		mov	r2, r1
  74 0014 0021     		movs	r1, #0
  75 0016 FFF7FEFF 		bl	USBD_LL_PrepareReceive
  76 001a 0020     		movs	r0, #0
  77 001c 10BD     		pop	{r4, pc}
  79              		.section	.text.USBD_CtlContinueRx,"ax",%progbits
  80              		.align	1
  81              		.global	USBD_CtlContinueRx
  82              		.syntax unified
  83              		.thumb
  84              		.thumb_func
  85              		.fpu softvfp
  87              	USBD_CtlContinueRx:
  88              		@ args = 0, pretend = 0, frame = 0
  89              		@ frame_needed = 0, uses_anonymous_args = 0
  90 0000 08B5     		push	{r3, lr}
  91 0002 1346     		mov	r3, r2
  92 0004 0A46     		mov	r2, r1
  93 0006 0021     		movs	r1, #0
  94 0008 FFF7FEFF 		bl	USBD_LL_PrepareReceive
  95 000c 0020     		movs	r0, #0
  96 000e 08BD     		pop	{r3, pc}
  98              		.section	.text.USBD_CtlSendStatus,"ax",%progbits
  99              		.align	1
 100              		.global	USBD_CtlSendStatus
 101              		.syntax unified
 102              		.thumb
 103              		.thumb_func
 104              		.fpu softvfp
 106              	USBD_CtlSendStatus:
 107              		@ args = 0, pretend = 0, frame = 0
 108              		@ frame_needed = 0, uses_anonymous_args = 0
 109 0000 08B5     		push	{r3, lr}
 110 0002 0423     		movs	r3, #4
 111 0004 C0F8F431 		str	r3, [r0, #500]
 112 0008 0023     		movs	r3, #0
 113 000a 1A46     		mov	r2, r3
 114 000c 1946     		mov	r1, r3
 115 000e FFF7FEFF 		bl	USBD_LL_Transmit
 116 0012 0020     		movs	r0, #0
 117 0014 08BD     		pop	{r3, pc}
 119              		.section	.text.USBD_CtlReceiveStatus,"ax",%progbits
 120              		.align	1
 121              		.global	USBD_CtlReceiveStatus
 122              		.syntax unified
 123              		.thumb
 124              		.thumb_func
ARM GAS  /tmp/cc5ym8bE.s 			page 3


 125              		.fpu softvfp
 127              	USBD_CtlReceiveStatus:
 128              		@ args = 0, pretend = 0, frame = 0
 129              		@ frame_needed = 0, uses_anonymous_args = 0
 130 0000 08B5     		push	{r3, lr}
 131 0002 0523     		movs	r3, #5
 132 0004 C0F8F431 		str	r3, [r0, #500]
 133 0008 0023     		movs	r3, #0
 134 000a 1A46     		mov	r2, r3
 135 000c 1946     		mov	r1, r3
 136 000e FFF7FEFF 		bl	USBD_LL_PrepareReceive
 137 0012 0020     		movs	r0, #0
 138 0014 08BD     		pop	{r3, pc}
 140              		.section	.text.USBD_GetRxCount,"ax",%progbits
 141              		.align	1
 142              		.global	USBD_GetRxCount
 143              		.syntax unified
 144              		.thumb
 145              		.thumb_func
 146              		.fpu softvfp
 148              	USBD_GetRxCount:
 149              		@ args = 0, pretend = 0, frame = 0
 150              		@ frame_needed = 0, uses_anonymous_args = 0
 151 0000 08B5     		push	{r3, lr}
 152 0002 FFF7FEFF 		bl	USBD_LL_GetRxDataSize
 153 0006 80B2     		uxth	r0, r0
 154 0008 08BD     		pop	{r3, pc}
 156              		.ident	"GCC: (GNU Tools for Arm Embedded Processors 8-2018-q4-major) 8.2.1 20181213 (release) [gcc
ARM GAS  /tmp/cc5ym8bE.s 			page 4

