ARM GAS  /tmp/ccORhc91.s 			page 1


   1              		.cpu cortex-m3
   2              		.eabi_attribute 20, 1
   3              		.eabi_attribute 21, 1
   4              		.eabi_attribute 23, 3
   5              		.eabi_attribute 24, 1
   6              		.eabi_attribute 25, 1
   7              		.eabi_attribute 26, 1
   8              		.eabi_attribute 30, 1
   9              		.eabi_attribute 34, 1
  10              		.eabi_attribute 18, 4
  11              		.file	"usbd_desc.c"
  12              		.text
  13              		.section	.text.USBD_FS_DeviceDescriptor,"ax",%progbits
  14              		.align	1
  15              		.global	USBD_FS_DeviceDescriptor
  16              		.arch armv7-m
  17              		.syntax unified
  18              		.thumb
  19              		.thumb_func
  20              		.fpu softvfp
  22              	USBD_FS_DeviceDescriptor:
  23              		@ args = 0, pretend = 0, frame = 0
  24              		@ frame_needed = 0, uses_anonymous_args = 0
  25              		@ link register save eliminated.
  26 0000 1223     		movs	r3, #18
  27 0002 0B80     		strh	r3, [r1]	@ movhi
  28 0004 0048     		ldr	r0, .L2
  29 0006 7047     		bx	lr
  30              	.L3:
  31              		.align	2
  32              	.L2:
  33 0008 00000000 		.word	.LANCHOR0
  35              		.section	.text.USBD_FS_LangIDStrDescriptor,"ax",%progbits
  36              		.align	1
  37              		.global	USBD_FS_LangIDStrDescriptor
  38              		.syntax unified
  39              		.thumb
  40              		.thumb_func
  41              		.fpu softvfp
  43              	USBD_FS_LangIDStrDescriptor:
  44              		@ args = 0, pretend = 0, frame = 0
  45              		@ frame_needed = 0, uses_anonymous_args = 0
  46              		@ link register save eliminated.
  47 0000 0423     		movs	r3, #4
  48 0002 0B80     		strh	r3, [r1]	@ movhi
  49 0004 0048     		ldr	r0, .L5
  50 0006 7047     		bx	lr
  51              	.L6:
  52              		.align	2
  53              	.L5:
  54 0008 00000000 		.word	.LANCHOR1
  56              		.section	.text.IntToUnicode,"ax",%progbits
  57              		.align	1
  58              		.syntax unified
  59              		.thumb
  60              		.thumb_func
  61              		.fpu softvfp
ARM GAS  /tmp/ccORhc91.s 			page 2


  63              	IntToUnicode:
  64              		@ args = 0, pretend = 0, frame = 0
  65              		@ frame_needed = 0, uses_anonymous_args = 0
  66              		@ link register save eliminated.
  67 0000 0023     		movs	r3, #0
  68 0002 9342     		cmp	r3, r2
  69 0004 16D2     		bcs	.L15
  70 0006 30B4     		push	{r4, r5}
  71 0008 0BE0     		b	.L11
  72              	.L9:
  73 000a 3734     		adds	r4, r4, #55
  74 000c 01F81340 		strb	r4, [r1, r3, lsl #1]
  75              	.L10:
  76 0010 0001     		lsls	r0, r0, #4
  77 0012 5C00     		lsls	r4, r3, #1
  78 0014 0134     		adds	r4, r4, #1
  79 0016 0025     		movs	r5, #0
  80 0018 0D55     		strb	r5, [r1, r4]
  81 001a 0133     		adds	r3, r3, #1
  82 001c DBB2     		uxtb	r3, r3
  83 001e 9342     		cmp	r3, r2
  84 0020 06D2     		bcs	.L16
  85              	.L11:
  86 0022 040F     		lsrs	r4, r0, #28
  87 0024 092C     		cmp	r4, #9
  88 0026 F0D8     		bhi	.L9
  89 0028 3034     		adds	r4, r4, #48
  90 002a 01F81340 		strb	r4, [r1, r3, lsl #1]
  91 002e EFE7     		b	.L10
  92              	.L16:
  93 0030 30BC     		pop	{r4, r5}
  94 0032 7047     		bx	lr
  95              	.L15:
  96 0034 7047     		bx	lr
  98              		.section	.text.Get_SerialNum,"ax",%progbits
  99              		.align	1
 100              		.syntax unified
 101              		.thumb
 102              		.thumb_func
 103              		.fpu softvfp
 105              	Get_SerialNum:
 106              		@ args = 0, pretend = 0, frame = 0
 107              		@ frame_needed = 0, uses_anonymous_args = 0
 108 0000 38B5     		push	{r3, r4, r5, lr}
 109 0002 0A4B     		ldr	r3, .L21
 110 0004 1868     		ldr	r0, [r3]
 111 0006 0433     		adds	r3, r3, #4
 112 0008 1C68     		ldr	r4, [r3]
 113 000a 0433     		adds	r3, r3, #4
 114 000c 1B68     		ldr	r3, [r3]
 115 000e C018     		adds	r0, r0, r3
 116 0010 00D1     		bne	.L20
 117              	.L17:
 118 0012 38BD     		pop	{r3, r4, r5, pc}
 119              	.L20:
 120 0014 064D     		ldr	r5, .L21+4
 121 0016 0822     		movs	r2, #8
ARM GAS  /tmp/ccORhc91.s 			page 3


 122 0018 A91C     		adds	r1, r5, #2
 123 001a FFF7FEFF 		bl	IntToUnicode
 124 001e 0422     		movs	r2, #4
 125 0020 05F11201 		add	r1, r5, #18
 126 0024 2046     		mov	r0, r4
 127 0026 FFF7FEFF 		bl	IntToUnicode
 128 002a F2E7     		b	.L17
 129              	.L22:
 130              		.align	2
 131              	.L21:
 132 002c E8F7FF1F 		.word	536868840
 133 0030 00000000 		.word	.LANCHOR2
 135              		.section	.text.USBD_FS_SerialStrDescriptor,"ax",%progbits
 136              		.align	1
 137              		.global	USBD_FS_SerialStrDescriptor
 138              		.syntax unified
 139              		.thumb
 140              		.thumb_func
 141              		.fpu softvfp
 143              	USBD_FS_SerialStrDescriptor:
 144              		@ args = 0, pretend = 0, frame = 0
 145              		@ frame_needed = 0, uses_anonymous_args = 0
 146 0000 08B5     		push	{r3, lr}
 147 0002 1A23     		movs	r3, #26
 148 0004 0B80     		strh	r3, [r1]	@ movhi
 149 0006 FFF7FEFF 		bl	Get_SerialNum
 150 000a 0148     		ldr	r0, .L25
 151 000c 08BD     		pop	{r3, pc}
 152              	.L26:
 153 000e 00BF     		.align	2
 154              	.L25:
 155 0010 00000000 		.word	.LANCHOR2
 157              		.section	.text.USBD_FS_ProductStrDescriptor,"ax",%progbits
 158              		.align	1
 159              		.global	USBD_FS_ProductStrDescriptor
 160              		.syntax unified
 161              		.thumb
 162              		.thumb_func
 163              		.fpu softvfp
 165              	USBD_FS_ProductStrDescriptor:
 166              		@ args = 0, pretend = 0, frame = 0
 167              		@ frame_needed = 0, uses_anonymous_args = 0
 168 0000 08B5     		push	{r3, lr}
 169 0002 0A46     		mov	r2, r1
 170 0004 28B9     		cbnz	r0, .L28
 171 0006 0549     		ldr	r1, .L31
 172 0008 0548     		ldr	r0, .L31+4
 173 000a FFF7FEFF 		bl	USBD_GetString
 174              	.L29:
 175 000e 0348     		ldr	r0, .L31
 176 0010 08BD     		pop	{r3, pc}
 177              	.L28:
 178 0012 0249     		ldr	r1, .L31
 179 0014 0248     		ldr	r0, .L31+4
 180 0016 FFF7FEFF 		bl	USBD_GetString
 181 001a F8E7     		b	.L29
 182              	.L32:
ARM GAS  /tmp/ccORhc91.s 			page 4


 183              		.align	2
 184              	.L31:
 185 001c 00000000 		.word	USBD_StrDesc
 186 0020 00000000 		.word	.LC0
 188              		.section	.text.USBD_FS_ManufacturerStrDescriptor,"ax",%progbits
 189              		.align	1
 190              		.global	USBD_FS_ManufacturerStrDescriptor
 191              		.syntax unified
 192              		.thumb
 193              		.thumb_func
 194              		.fpu softvfp
 196              	USBD_FS_ManufacturerStrDescriptor:
 197              		@ args = 0, pretend = 0, frame = 0
 198              		@ frame_needed = 0, uses_anonymous_args = 0
 199 0000 10B5     		push	{r4, lr}
 200 0002 044C     		ldr	r4, .L35
 201 0004 0A46     		mov	r2, r1
 202 0006 2146     		mov	r1, r4
 203 0008 0348     		ldr	r0, .L35+4
 204 000a FFF7FEFF 		bl	USBD_GetString
 205 000e 2046     		mov	r0, r4
 206 0010 10BD     		pop	{r4, pc}
 207              	.L36:
 208 0012 00BF     		.align	2
 209              	.L35:
 210 0014 00000000 		.word	USBD_StrDesc
 211 0018 00000000 		.word	.LC1
 213              		.section	.text.USBD_FS_ConfigStrDescriptor,"ax",%progbits
 214              		.align	1
 215              		.global	USBD_FS_ConfigStrDescriptor
 216              		.syntax unified
 217              		.thumb
 218              		.thumb_func
 219              		.fpu softvfp
 221              	USBD_FS_ConfigStrDescriptor:
 222              		@ args = 0, pretend = 0, frame = 0
 223              		@ frame_needed = 0, uses_anonymous_args = 0
 224 0000 08B5     		push	{r3, lr}
 225 0002 0A46     		mov	r2, r1
 226 0004 28B9     		cbnz	r0, .L38
 227 0006 0549     		ldr	r1, .L41
 228 0008 0548     		ldr	r0, .L41+4
 229 000a FFF7FEFF 		bl	USBD_GetString
 230              	.L39:
 231 000e 0348     		ldr	r0, .L41
 232 0010 08BD     		pop	{r3, pc}
 233              	.L38:
 234 0012 0249     		ldr	r1, .L41
 235 0014 0248     		ldr	r0, .L41+4
 236 0016 FFF7FEFF 		bl	USBD_GetString
 237 001a F8E7     		b	.L39
 238              	.L42:
 239              		.align	2
 240              	.L41:
 241 001c 00000000 		.word	USBD_StrDesc
 242 0020 00000000 		.word	.LC2
 244              		.section	.text.USBD_FS_InterfaceStrDescriptor,"ax",%progbits
ARM GAS  /tmp/ccORhc91.s 			page 5


 245              		.align	1
 246              		.global	USBD_FS_InterfaceStrDescriptor
 247              		.syntax unified
 248              		.thumb
 249              		.thumb_func
 250              		.fpu softvfp
 252              	USBD_FS_InterfaceStrDescriptor:
 253              		@ args = 0, pretend = 0, frame = 0
 254              		@ frame_needed = 0, uses_anonymous_args = 0
 255 0000 08B5     		push	{r3, lr}
 256 0002 0A46     		mov	r2, r1
 257 0004 28B9     		cbnz	r0, .L44
 258 0006 0549     		ldr	r1, .L47
 259 0008 0548     		ldr	r0, .L47+4
 260 000a FFF7FEFF 		bl	USBD_GetString
 261              	.L45:
 262 000e 0348     		ldr	r0, .L47
 263 0010 08BD     		pop	{r3, pc}
 264              	.L44:
 265 0012 0249     		ldr	r1, .L47
 266 0014 0248     		ldr	r0, .L47+4
 267 0016 FFF7FEFF 		bl	USBD_GetString
 268 001a F8E7     		b	.L45
 269              	.L48:
 270              		.align	2
 271              	.L47:
 272 001c 00000000 		.word	USBD_StrDesc
 273 0020 00000000 		.word	.LC3
 275              		.global	USBD_StringSerial
 276              		.comm	USBD_StrDesc,512,4
 277              		.global	USBD_LangIDDesc
 278              		.global	USBD_FS_DeviceDesc
 279              		.global	FS_Desc
 280              		.section	.data.FS_Desc,"aw"
 281              		.align	2
 284              	FS_Desc:
 285 0000 00000000 		.word	USBD_FS_DeviceDescriptor
 286 0004 00000000 		.word	USBD_FS_LangIDStrDescriptor
 287 0008 00000000 		.word	USBD_FS_ManufacturerStrDescriptor
 288 000c 00000000 		.word	USBD_FS_ProductStrDescriptor
 289 0010 00000000 		.word	USBD_FS_SerialStrDescriptor
 290 0014 00000000 		.word	USBD_FS_ConfigStrDescriptor
 291 0018 00000000 		.word	USBD_FS_InterfaceStrDescriptor
 292              		.section	.data.USBD_FS_DeviceDesc,"aw"
 293              		.align	2
 294              		.set	.LANCHOR0,. + 0
 297              	USBD_FS_DeviceDesc:
 298 0000 12       		.byte	18
 299 0001 01       		.byte	1
 300 0002 00       		.byte	0
 301 0003 02       		.byte	2
 302 0004 02       		.byte	2
 303 0005 02       		.byte	2
 304 0006 00       		.byte	0
 305 0007 40       		.byte	64
 306 0008 83       		.byte	-125
 307 0009 04       		.byte	4
ARM GAS  /tmp/ccORhc91.s 			page 6


 308 000a 40       		.byte	64
 309 000b 57       		.byte	87
 310 000c 00       		.byte	0
 311 000d 02       		.byte	2
 312 000e 01       		.byte	1
 313 000f 02       		.byte	2
 314 0010 03       		.byte	3
 315 0011 01       		.byte	1
 316              		.section	.data.USBD_LangIDDesc,"aw"
 317              		.align	2
 318              		.set	.LANCHOR1,. + 0
 321              	USBD_LangIDDesc:
 322 0000 04       		.byte	4
 323 0001 03       		.byte	3
 324 0002 09       		.byte	9
 325 0003 04       		.byte	4
 326              		.section	.data.USBD_StringSerial,"aw"
 327              		.align	2
 328              		.set	.LANCHOR2,. + 0
 331              	USBD_StringSerial:
 332 0000 1A       		.byte	26
 333 0001 03       		.byte	3
 334 0002 00000000 		.space	24
 334      00000000 
 334      00000000 
 334      00000000 
 334      00000000 
 335              		.section	.rodata.USBD_FS_ConfigStrDescriptor.str1.4,"aMS",%progbits,1
 336              		.align	2
 337              	.LC2:
 338 0000 43444320 		.ascii	"CDC Config\000"
 338      436F6E66 
 338      696700
 339              		.section	.rodata.USBD_FS_InterfaceStrDescriptor.str1.4,"aMS",%progbits,1
 340              		.align	2
 341              	.LC3:
 342 0000 43444320 		.ascii	"CDC Interface\000"
 342      496E7465 
 342      72666163 
 342      6500
 343              		.section	.rodata.USBD_FS_ManufacturerStrDescriptor.str1.4,"aMS",%progbits,1
 344              		.align	2
 345              	.LC1:
 346 0000 53544D69 		.ascii	"STMicroelectronics\000"
 346      63726F65 
 346      6C656374 
 346      726F6E69 
 346      637300
 347              		.section	.rodata.USBD_FS_ProductStrDescriptor.str1.4,"aMS",%progbits,1
 348              		.align	2
 349              	.LC0:
 350 0000 53544D33 		.ascii	"STM32 Virtual ComPort\000"
 350      32205669 
 350      72747561 
 350      6C20436F 
 350      6D506F72 
 351              		.ident	"GCC: (GNU Tools for Arm Embedded Processors 8-2018-q4-major) 8.2.1 20181213 (release) [gcc
ARM GAS  /tmp/ccORhc91.s 			page 7


ARM GAS  /tmp/ccORhc91.s 			page 8

